

Microchip MPLAB XC8 Assembler V2.40 build 20220703182018 
                                                                                               Tue Jul 26 12:25:10 2022

Microchip MPLAB XC8 C Compiler v2.40 (Free license) build 20220703182018 Og1 
     1                           	processor	16F877A
     2                           	pagewidth 120
     3                           	opt	flic
     4                           	psect	strings,global,class=STRING,delta=2,noexec
     5                           	psect	cinit,global,class=CODE,merge=1,delta=2
     6                           	psect	bitbssCOMMON,global,bit,class=COMMON,space=1,delta=1,noexec
     7                           	psect	bssBANK0,global,class=BANK0,space=1,delta=1,noexec
     8                           	psect	bssBANK1,global,class=BANK1,space=1,delta=1,noexec
     9                           	psect	clrtext,global,class=CODE,delta=2
    10                           	psect	cstackCOMMON,global,class=COMMON,space=1,delta=1,noexec
    11                           	psect	cstackBANK0,global,class=BANK0,space=1,delta=1,noexec
    12                           	psect	maintext,global,class=CODE,split=1,delta=2
    13                           	psect	text1,local,class=CODE,merge=1,delta=2,group=1
    14                           	psect	text2,local,class=CODE,merge=1,delta=2,group=3
    15                           	psect	text3,local,class=CODE,merge=1,delta=2,group=2
    16                           	psect	text4,local,class=CODE,merge=1,delta=2,group=2
    17                           	psect	text5,local,class=CODE,merge=1,delta=2,group=2
    18                           	psect	text6,local,class=CODE,merge=1,delta=2,group=2
    19                           	psect	text7,local,class=CODE,merge=1,delta=2,group=2
    20                           	psect	text8,local,class=CODE,merge=1,delta=2,group=2
    21                           	psect	text9,local,class=CODE,merge=1,delta=2,group=2
    22                           	psect	text10,local,class=CODE,merge=1,delta=2,group=2
    23                           	psect	text11,local,class=CODE,merge=1,delta=2,group=2
    24                           	psect	text12,local,class=CODE,merge=1,delta=2
    25                           	psect	text13,local,class=CODE,merge=1,delta=2
    26                           	psect	text14,local,class=CODE,merge=1,delta=2
    27                           	psect	text15,local,class=CODE,merge=1,delta=2
    28                           	psect	text16,local,class=CODE,merge=1,delta=2
    29                           	psect	text17,local,class=CODE,merge=1,delta=2
    30                           	psect	text18,local,class=CODE,merge=1,delta=2
    31                           	psect	text19,local,class=CODE,merge=1,delta=2
    32                           	psect	intentry,global,class=CODE,delta=2
    33                           	psect	config,global,abs,ovrld,class=CONFIG,space=4,delta=2,noexec
    34                           	dabs	1,0x7E,2
    35     0000                     
    36                           ; Version 2.20
    37                           ; Generated 12/02/2020 GMT
    38                           ; 
    39                           ; Copyright © 2020, Microchip Technology Inc. and its subsidiaries ("Microchip")
    40                           ; All rights reserved.
    41                           ; 
    42                           ; This software is developed by Microchip Technology Inc. and its subsidiaries ("Microch
      +                          ip").
    43                           ; 
    44                           ; Redistribution and use in source and binary forms, with or without modification, are
    45                           ; permitted provided that the following conditions are met:
    46                           ; 
    47                           ;     1. Redistributions of source code must retain the above copyright notice, this lis
      +                          t of
    48                           ;        conditions and the following disclaimer.
    49                           ; 
    50                           ;     2. Redistributions in binary form must reproduce the above copyright notice, this 
      +                          list
    51                           ;        of conditions and the following disclaimer in the documentation and/or other
    52                           ;        materials provided with the distribution.
    53                           ; 
    54                           ;     3. Microchip's name may not be used to endorse or promote products derived from th
      +                          is
    55                           ;        software without specific prior written permission.
    56                           ; 
    57                           ; THIS SOFTWARE IS PROVIDED BY MICROCHIP "AS IS" AND ANY EXPRESS OR IMPLIED WARRANTIES,
    58                           ; INCLUDING, BUT NOT LIMITED TO, THE IMPLIED WARRANTIES OF MERCHANTABILITY AND FITNESS F
      +                          OR
    59                           ; PURPOSE ARE DISCLAIMED.  IN NO EVENT SHALL MICROCHIP BE LIABLE FOR ANY DIRECT, INDIREC
      +                          T,
    60                           ; INCIDENTAL, SPECIAL, EXEMPLARY, OR CONSEQUENTIAL DAMAGES (INCLUDING BUT NOT LIMITED TO
    61                           ; PROCUREMENT OF SUBSTITUTE GOODS OR SERVICES; LOSS OF USE, DATA OR PROFITS; OR BUSINESS
    62                           ; INTERRUPTION) HOWSOEVER CAUSED AND ON ANY THEORY OF LIABILITY, WHETHER IN CONTRACT, ST
      +                          RICT
    63                           ; LIABILITY, OR TORT (INCLUDING NEGLIGENCE OR OTHERWISE) ARISING IN ANY WAY OUT OF THE U
      +                          SE OF
    64                           ; THIS SOFTWARE, EVEN IF ADVISED OF THE POSSIBILITY OF SUCH DAMAGE.
    65                           ; 
    66                           ; 
    67                           ; Code-generator required, PIC16F877A Definitions
    68                           ; 
    69                           ; SFR Addresses
    70     0000                     	;# 
    71     0001                     	;# 
    72     0002                     	;# 
    73     0003                     	;# 
    74     0004                     	;# 
    75     0005                     	;# 
    76     0006                     	;# 
    77     0007                     	;# 
    78     0008                     	;# 
    79     0009                     	;# 
    80     000A                     	;# 
    81     000B                     	;# 
    82     000C                     	;# 
    83     000D                     	;# 
    84     000E                     	;# 
    85     000E                     	;# 
    86     000F                     	;# 
    87     0010                     	;# 
    88     0011                     	;# 
    89     0012                     	;# 
    90     0013                     	;# 
    91     0014                     	;# 
    92     0015                     	;# 
    93     0015                     	;# 
    94     0016                     	;# 
    95     0017                     	;# 
    96     0018                     	;# 
    97     0019                     	;# 
    98     001A                     	;# 
    99     001B                     	;# 
   100     001B                     	;# 
   101     001C                     	;# 
   102     001D                     	;# 
   103     001E                     	;# 
   104     001F                     	;# 
   105     0081                     	;# 
   106     0085                     	;# 
   107     0086                     	;# 
   108     0087                     	;# 
   109     0088                     	;# 
   110     0089                     	;# 
   111     008C                     	;# 
   112     008D                     	;# 
   113     008E                     	;# 
   114     0091                     	;# 
   115     0092                     	;# 
   116     0093                     	;# 
   117     0094                     	;# 
   118     0098                     	;# 
   119     0099                     	;# 
   120     009C                     	;# 
   121     009D                     	;# 
   122     009E                     	;# 
   123     009F                     	;# 
   124     010C                     	;# 
   125     010D                     	;# 
   126     010E                     	;# 
   127     010F                     	;# 
   128     018C                     	;# 
   129     018D                     	;# 
   130     0000                     	;# 
   131     0001                     	;# 
   132     0002                     	;# 
   133     0003                     	;# 
   134     0004                     	;# 
   135     0005                     	;# 
   136     0006                     	;# 
   137     0007                     	;# 
   138     0008                     	;# 
   139     0009                     	;# 
   140     000A                     	;# 
   141     000B                     	;# 
   142     000C                     	;# 
   143     000D                     	;# 
   144     000E                     	;# 
   145     000E                     	;# 
   146     000F                     	;# 
   147     0010                     	;# 
   148     0011                     	;# 
   149     0012                     	;# 
   150     0013                     	;# 
   151     0014                     	;# 
   152     0015                     	;# 
   153     0015                     	;# 
   154     0016                     	;# 
   155     0017                     	;# 
   156     0018                     	;# 
   157     0019                     	;# 
   158     001A                     	;# 
   159     001B                     	;# 
   160     001B                     	;# 
   161     001C                     	;# 
   162     001D                     	;# 
   163     001E                     	;# 
   164     001F                     	;# 
   165     0081                     	;# 
   166     0085                     	;# 
   167     0086                     	;# 
   168     0087                     	;# 
   169     0088                     	;# 
   170     0089                     	;# 
   171     008C                     	;# 
   172     008D                     	;# 
   173     008E                     	;# 
   174     0091                     	;# 
   175     0092                     	;# 
   176     0093                     	;# 
   177     0094                     	;# 
   178     0098                     	;# 
   179     0099                     	;# 
   180     009C                     	;# 
   181     009D                     	;# 
   182     009E                     	;# 
   183     009F                     	;# 
   184     010C                     	;# 
   185     010D                     	;# 
   186     010E                     	;# 
   187     010F                     	;# 
   188     018C                     	;# 
   189     018D                     	;# 
   190                           
   191                           	psect	strings
   192     1000                     __pstrings:
   193     1000                     stringtab:
   194     1000                     __stringtab:
   195                           
   196                           ;	String table - string pointers are 1 byte each
   197     1000  1BFF               	btfsc	btemp+1,7
   198     1001  280A               	ljmp	stringcode
   199     1002  1383               	bcf	3,7
   200     1003  187F               	btfsc	btemp+1,0
   201     1004  1783               	bsf	3,7
   202     1005  0800               	movf	0,w
   203     1006  0A84               	incf	4,f
   204     1007  1903               	skipnz
   205     1008  0AFF               	incf	btemp+1,f
   206     1009  0008               	return
   207     100A                     stringcode:
   208     100A                     stringdir:
   209     100A  3010               	movlw	high stringdir
   210     100B  008A               	movwf	10
   211     100C  0804               	movf	4,w
   212     100D  0A84               	incf	4,f
   213     100E  0782               	addwf	2,f
   214     100F                     __stringbase:
   215     100F  3400               	retlw	0
   216     1010                     __end_of__stringtab:
   217     1010                     _dpowers:
   218     1010  3401               	retlw	1
   219     1011  3400               	retlw	0
   220     1012  340A               	retlw	10
   221     1013  3400               	retlw	0
   222     1014  3464               	retlw	100
   223     1015  3400               	retlw	0
   224     1016  34E8               	retlw	232
   225     1017  3403               	retlw	3
   226     1018  3410               	retlw	16
   227     1019  3427               	retlw	39
   228     101A                     __end_of_dpowers:
   229     000C                     _PIR1bits	set	12
   230     0007                     _PORTCbits	set	7
   231     0006                     _PORTBbits	set	6
   232     001E                     _ADRESH	set	30
   233     001F                     _ADCON0bits	set	31
   234     000F                     _TMR1H	set	15
   235     000E                     _TMR1L	set	14
   236     0010                     _T1CONbits	set	16
   237     000B                     _INTCONbits	set	11
   238     0007                     _PORTC	set	7
   239     0006                     _PORTB	set	6
   240     0059                     _INTF	set	89
   241     0060                     _TMR1IF	set	96
   242     0036                     _RB6	set	54
   243     0035                     _RB5	set	53
   244     0043                     _RD3	set	67
   245     0042                     _RD2	set	66
   246     0047                     _RD7	set	71
   247     0046                     _RD6	set	70
   248     0045                     _RD5	set	69
   249     0044                     _RD4	set	68
   250     009E                     _ADRESL	set	158
   251     009F                     _ADCON1bits	set	159
   252     008C                     _PIE1bits	set	140
   253     0081                     _OPTION_REG	set	129
   254     0088                     _TRISD	set	136
   255     0087                     _TRISC	set	135
   256     0086                     _TRISB	set	134
   257     101A                     STR_2:
   258     101A  3425               	retlw	37	;'%'
   259     101B  3432               	retlw	50	;'2'
   260     101C  342E               	retlw	46	;'.'
   261     101D  3432               	retlw	50	;'2'
   262     101E  3464               	retlw	100	;'d'
   263     101F  3420               	retlw	32	;' '
   264     1020  343A               	retlw	58	;':'
   265     1021  3420               	retlw	32	;' '
   266     1022  3425               	retlw	37	;'%'
   267     1023  3432               	retlw	50	;'2'
   268     1024  342E               	retlw	46	;'.'
   269     1025  3432               	retlw	50	;'2'
   270     1026  3464               	retlw	100	;'d'
   271     1027  3420               	retlw	32	;' '
   272     1028  343A               	retlw	58	;':'
   273     1029  3420               	retlw	32	;' '
   274     102A  3425               	retlw	37	;'%'
   275     102B  3432               	retlw	50	;'2'
   276     102C  342E               	retlw	46	;'.'
   277     102D  3432               	retlw	50	;'2'
   278     102E  3464               	retlw	100	;'d'
   279     102F  3400               	retlw	0
   280     1030                     STR_1:
   281     1030  3452               	retlw	82	;'R'
   282     1031  3465               	retlw	101	;'e'
   283     1032  346C               	retlw	108	;'l'
   284     1033  346F               	retlw	111	;'o'
   285     1034  3467               	retlw	103	;'g'
   286     1035  3469               	retlw	105	;'i'
   287     1036  346F               	retlw	111	;'o'
   288     1037  343A               	retlw	58	;':'
   289     1038  3400               	retlw	0
   290                           
   291                           	psect	cinit
   292     000F                     start_initialization:	
   293                           ; #config settings
   294                           
   295     000F                     __initialization:
   296                           
   297                           ; Clear objects allocated to BITCOMMON
   298     000F  01FB               	clrf	(__pbitbssCOMMON/(0+8))& (0+127)
   299                           
   300                           ; Clear objects allocated to BANK0
   301     0010  1383               	bcf	3,7	;select IRP bank0
   302     0011  3058               	movlw	low __pbssBANK0
   303     0012  0084               	movwf	4
   304     0013  306E               	movlw	low (__pbssBANK0+22)
   305     0014  160A  118A  2752  120A  118A  	fcall	clear_ram0
   306                           
   307                           ; Clear objects allocated to BANK1
   308     0019  30A0               	movlw	low __pbssBANK1
   309     001A  0084               	movwf	4
   310     001B  30B8               	movlw	low (__pbssBANK1+24)
   311     001C  160A  118A  2752  120A  118A  	fcall	clear_ram0
   312     0021                     end_of_initialization:	
   313                           ;End of C runtime variable initialization code
   314                           
   315     0021                     __end_of__initialization:
   316     0021  0183               	clrf	3
   317     0022  120A  118A  2825   	ljmp	_main	;jump to C main() function
   318                           
   319                           	psect	bitbssCOMMON
   320     03D8                     __pbitbssCOMMON:
   321     03D8                     _trocado:
   322     03D8                     	ds	1
   323     03D9                     _btnTroca:
   324     03D9                     	ds	1
   325     03DA                     _sensorFecha:
   326     03DA                     	ds	1
   327     03DB                     _sensorAbre:
   328     03DB                     	ds	1
   329     03DC                     _btnVent:
   330     03DC                     	ds	1
   331     03DD                     _btnFecha:
   332     03DD                     	ds	1
   333     03DE                     _btnAbre:
   334     03DE                     	ds	1
   335     03DF                     _btnLuz:
   336     03DF                     	ds	1
   337                           
   338                           	psect	bssBANK0
   339     0058                     __pbssBANK0:
   340     0058                     _valor:
   341     0058                     	ds	4
   342     005C                     _trocaHora:
   343     005C                     	ds	2
   344     005E                     _hora:
   345     005E                     	ds	2
   346     0060                     _min:
   347     0060                     	ds	2
   348     0062                     _sec:
   349     0062                     	ds	2
   350     0064                     _meioTempo:
   351     0064                     	ds	2
   352     0066                     _deuPau:
   353     0066                     	ds	2
   354     0068                     _testeCort:
   355     0068                     	ds	2
   356     006A                     _testeVent:
   357     006A                     	ds	2
   358     006C                     _testeLuz:
   359     006C                     	ds	2
   360                           
   361                           	psect	bssBANK1
   362     00A0                     __pbssBANK1:
   363     00A0                     _temperatura:
   364     00A0                     	ds	4
   365     00A4                     _buffer:
   366     00A4                     	ds	20
   367                           
   368                           	psect	clrtext
   369     1752                     clear_ram0:	
   370                           ;	Called with FSR containing the base address, and
   371                           ;	W with the last address+1
   372                           
   373     1752  0064               	clrwdt	;clear the watchdog before getting into this loop
   374     1753                     clrloop0:
   375     1753  0180               	clrf	0	;clear RAM location pointed to by FSR
   376     1754  0A84               	incf	4,f	;increment pointer
   377     1755  0604               	xorwf	4,w	;XOR with final address
   378     1756  1903               	btfsc	3,2	;have we reached the end yet?
   379     1757  3400               	retlw	0	;all done for this memory range, return
   380     1758  0604               	xorwf	4,w	;XOR again to restore value
   381     1759  2F53               	goto	clrloop0	;do the next byte
   382                           
   383                           	psect	cstackCOMMON
   384     0070                     __pcstackCOMMON:
   385     0070                     ?_isdigit:
   386     0070                     ?_Lcd_Port:	
   387                           ; 1 bit 
   388                           
   389     0070                     ?_Lcd_Cmd:	
   390                           ; 1 bytes @ 0x0
   391                           
   392     0070                     ?_Lcd_Clear:	
   393                           ; 1 bytes @ 0x0
   394                           
   395     0070                     ?_Lcd_Init:	
   396                           ; 1 bytes @ 0x0
   397                           
   398     0070                     ?_Lcd_Write_Char:	
   399                           ; 1 bytes @ 0x0
   400                           
   401     0070                     ?_main:	
   402                           ; 1 bytes @ 0x0
   403                           
   404     0070                     ?_TrataInt:	
   405                           ; 1 bytes @ 0x0
   406                           
   407     0070                     ??_TrataInt:	
   408                           ; 1 bytes @ 0x0
   409                           
   410                           
   411                           ; 1 bytes @ 0x0
   412     0070                     	ds	2
   413     0072                     ?___flge:
   414     0072                     ??_isdigit:	
   415                           ; 1 bit 
   416                           
   417     0072                     ??_Lcd_Port:	
   418                           ; 1 bytes @ 0x2
   419                           
   420     0072                     ?___bmul:	
   421                           ; 1 bytes @ 0x2
   422                           
   423     0072                     ?__Umul8_16:	
   424                           ; 1 bytes @ 0x2
   425                           
   426     0072                     ?___wmul:	
   427                           ; 2 bytes @ 0x2
   428                           
   429     0072                     ?___lwdiv:	
   430                           ; 2 bytes @ 0x2
   431                           
   432     0072                     ?___xxtofl:	
   433                           ; 2 bytes @ 0x2
   434                           
   435     0072                     Lcd_Port@a:	
   436                           ; 4 bytes @ 0x2
   437                           
   438     0072                     ___bmul@multiplicand:	
   439                           ; 1 bytes @ 0x2
   440                           
   441     0072                     __Umul8_16@multiplicand:	
   442                           ; 1 bytes @ 0x2
   443                           
   444     0072                     _isdigit$858:	
   445                           ; 1 bytes @ 0x2
   446                           
   447     0072                     ___wmul@multiplier:	
   448                           ; 1 bytes @ 0x2
   449                           
   450     0072                     ___lwdiv@divisor:	
   451                           ; 2 bytes @ 0x2
   452                           
   453     0072                     ___flge@ff1:	
   454                           ; 2 bytes @ 0x2
   455                           
   456     0072                     ___xxtofl@val:	
   457                           ; 4 bytes @ 0x2
   458                           
   459                           
   460                           ; 4 bytes @ 0x2
   461     0072                     	ds	1
   462     0073                     ??_Lcd_Cmd:
   463     0073                     ??_Lcd_Write_Char:	
   464                           ; 1 bytes @ 0x3
   465                           
   466     0073                     ??___bmul:	
   467                           ; 1 bytes @ 0x3
   468                           
   469     0073                     isdigit@c:	
   470                           ; 1 bytes @ 0x3
   471                           
   472                           
   473                           ; 1 bytes @ 0x3
   474     0073                     	ds	1
   475     0074                     ??__Umul8_16:
   476     0074                     Lcd_Write_Char@temp:	
   477                           ; 1 bytes @ 0x4
   478                           
   479     0074                     ___bmul@product:	
   480                           ; 1 bytes @ 0x4
   481                           
   482     0074                     ___wmul@multiplicand:	
   483                           ; 1 bytes @ 0x4
   484                           
   485     0074                     ___lwdiv@dividend:	
   486                           ; 2 bytes @ 0x4
   487                           
   488                           
   489                           ; 2 bytes @ 0x4
   490     0074                     	ds	1
   491     0075                     Lcd_Cmd@a:
   492     0075                     Lcd_Write_Char@y:	
   493                           ; 1 bytes @ 0x5
   494                           
   495     0075                     ___bmul@multiplier:	
   496                           ; 1 bytes @ 0x5
   497                           
   498                           
   499                           ; 1 bytes @ 0x5
   500     0075                     	ds	1
   501     0076                     ??_Lcd_Clear:
   502     0076                     ?_Lcd_Set_Cursor:	
   503                           ; 1 bytes @ 0x6
   504                           
   505     0076                     ??_Lcd_Init:	
   506                           ; 1 bytes @ 0x6
   507                           
   508     0076                     ??___wmul:	
   509                           ; 1 bytes @ 0x6
   510                           
   511     0076                     ??___lwdiv:	
   512                           ; 1 bytes @ 0x6
   513                           
   514     0076                     ??___xxtofl:	
   515                           ; 1 bytes @ 0x6
   516                           
   517     0076                     Lcd_Set_Cursor@b:	
   518                           ; 1 bytes @ 0x6
   519                           
   520     0076                     Lcd_Write_Char@a:	
   521                           ; 1 bytes @ 0x6
   522                           
   523     0076                     ___wmul@product:	
   524                           ; 1 bytes @ 0x6
   525                           
   526     0076                     __Umul8_16@product:	
   527                           ; 2 bytes @ 0x6
   528                           
   529     0076                     ___flge@ff2:	
   530                           ; 2 bytes @ 0x6
   531                           
   532                           
   533                           ; 4 bytes @ 0x6
   534     0076                     	ds	1
   535     0077                     ??_Lcd_Set_Cursor:
   536     0077                     ?_Lcd_Write_String:	
   537                           ; 1 bytes @ 0x7
   538                           
   539     0077                     Lcd_Write_String@a:	
   540                           ; 1 bytes @ 0x7
   541                           
   542     0077                     ___lwdiv@quotient:	
   543                           ; 2 bytes @ 0x7
   544                           
   545                           
   546                           ; 2 bytes @ 0x7
   547     0077                     	ds	1
   548     0078                     __Umul8_16@word_mpld:
   549                           
   550                           ; 2 bytes @ 0x8
   551     0078                     	ds	1
   552     0079                     ___lwdiv@counter:
   553     0079                     Lcd_Write_String@i:	
   554                           ; 1 bytes @ 0x9
   555                           
   556                           
   557                           ; 2 bytes @ 0x9
   558     0079                     	ds	1
   559     007A                     ??___lwmod:
   560     007A                     __Umul8_16@multiplier:	
   561                           ; 1 bytes @ 0xA
   562                           
   563                           
   564                           ; 1 bytes @ 0xA
   565     007A                     	ds	1
   566                           
   567                           	psect	cstackBANK0
   568     0020                     __pcstackBANK0:
   569     0020                     ??_Lcd_Write_String:
   570     0020                     ??___flge:	
   571                           ; 1 bytes @ 0x0
   572                           
   573     0020                     ?___lwmod:	
   574                           ; 1 bytes @ 0x0
   575                           
   576     0020                     ?___flmul:	
   577                           ; 2 bytes @ 0x0
   578                           
   579     0020                     Lcd_Set_Cursor@a:	
   580                           ; 4 bytes @ 0x0
   581                           
   582     0020                     ___xxtofl@sign:	
   583                           ; 1 bytes @ 0x0
   584                           
   585     0020                     ___lwmod@divisor:	
   586                           ; 1 bytes @ 0x0
   587                           
   588     0020                     ___flmul@b:	
   589                           ; 2 bytes @ 0x0
   590                           
   591                           
   592                           ; 4 bytes @ 0x0
   593     0020                     	ds	1
   594     0021                     Lcd_Set_Cursor@z:
   595     0021                     ___xxtofl@exp:	
   596                           ; 1 bytes @ 0x1
   597                           
   598                           
   599                           ; 1 bytes @ 0x1
   600     0021                     	ds	1
   601     0022                     Lcd_Set_Cursor@y:
   602     0022                     ___lwmod@dividend:	
   603                           ; 1 bytes @ 0x2
   604                           
   605     0022                     ___xxtofl@arg:	
   606                           ; 2 bytes @ 0x2
   607                           
   608                           
   609                           ; 4 bytes @ 0x2
   610     0022                     	ds	1
   611     0023                     Lcd_Set_Cursor@temp:
   612                           
   613                           ; 1 bytes @ 0x3
   614     0023                     	ds	1
   615     0024                     ___lwmod@counter:
   616     0024                     ___flmul@a:	
   617                           ; 1 bytes @ 0x4
   618                           
   619                           
   620                           ; 4 bytes @ 0x4
   621     0024                     	ds	1
   622     0025                     ?_sprintf:
   623     0025                     sprintf@f:	
   624                           ; 2 bytes @ 0x5
   625                           
   626                           
   627                           ; 1 bytes @ 0x5
   628     0025                     	ds	3
   629     0028                     ??___flmul:
   630                           
   631                           ; 1 bytes @ 0x8
   632     0028                     	ds	4
   633     002C                     ??_sprintf:
   634                           
   635                           ; 1 bytes @ 0xC
   636     002C                     	ds	1
   637     002D                     ___flmul@sign:
   638                           
   639                           ; 1 bytes @ 0xD
   640     002D                     	ds	1
   641     002E                     ___flmul@grs:
   642                           
   643                           ; 4 bytes @ 0xE
   644     002E                     	ds	1
   645     002F                     sprintf@ap:
   646                           
   647                           ; 1 bytes @ 0xF
   648     002F                     	ds	1
   649     0030                     sprintf@flag:
   650                           
   651                           ; 1 bytes @ 0x10
   652     0030                     	ds	1
   653     0031                     sprintf@val:
   654                           
   655                           ; 2 bytes @ 0x11
   656     0031                     	ds	1
   657     0032                     ___flmul@aexp:
   658                           
   659                           ; 1 bytes @ 0x12
   660     0032                     	ds	1
   661     0033                     sprintf@sp:
   662     0033                     ___flmul@bexp:	
   663                           ; 1 bytes @ 0x13
   664                           
   665                           
   666                           ; 1 bytes @ 0x13
   667     0033                     	ds	1
   668     0034                     sprintf@width:
   669     0034                     ___flmul@prod:	
   670                           ; 2 bytes @ 0x14
   671                           
   672                           
   673                           ; 4 bytes @ 0x14
   674     0034                     	ds	2
   675     0036                     sprintf@prec:
   676                           
   677                           ; 1 bytes @ 0x16
   678     0036                     	ds	1
   679     0037                     sprintf@c:
   680                           
   681                           ; 1 bytes @ 0x17
   682     0037                     	ds	1
   683     0038                     ___flmul@temp:
   684                           
   685                           ; 2 bytes @ 0x18
   686     0038                     	ds	2
   687     003A                     ?___fldiv:
   688     003A                     ___fldiv@a:	
   689                           ; 4 bytes @ 0x1A
   690                           
   691                           
   692                           ; 4 bytes @ 0x1A
   693     003A                     	ds	4
   694     003E                     ___fldiv@b:
   695                           
   696                           ; 4 bytes @ 0x1E
   697     003E                     	ds	4
   698     0042                     ??___fldiv:
   699                           
   700                           ; 1 bytes @ 0x22
   701     0042                     	ds	5
   702     0047                     ___fldiv@rem:
   703                           
   704                           ; 4 bytes @ 0x27
   705     0047                     	ds	4
   706     004B                     ___fldiv@sign:
   707                           
   708                           ; 1 bytes @ 0x2B
   709     004B                     	ds	1
   710     004C                     ___fldiv@new_exp:
   711                           
   712                           ; 2 bytes @ 0x2C
   713     004C                     	ds	2
   714     004E                     ___fldiv@grs:
   715                           
   716                           ; 4 bytes @ 0x2E
   717     004E                     	ds	4
   718     0052                     ___fldiv@bexp:
   719                           
   720                           ; 1 bytes @ 0x32
   721     0052                     	ds	1
   722     0053                     ___fldiv@aexp:
   723                           
   724                           ; 1 bytes @ 0x33
   725     0053                     	ds	1
   726     0054                     ??_main:
   727                           
   728                           ; 1 bytes @ 0x34
   729     0054                     	ds	4
   730                           
   731                           	psect	maintext
   732     0025                     __pmaintext:	
   733 ;;
   734 ;;Main: autosize = 0, tempsize = 4, incstack = 0, save=0
   735 ;;
   736 ;; *************** function _main *****************
   737 ;; Defined at:
   738 ;;		line 58 in file "main.c"
   739 ;; Parameters:    Size  Location     Type
   740 ;;		None
   741 ;; Auto vars:     Size  Location     Type
   742 ;;		None
   743 ;; Return value:  Size  Location     Type
   744 ;;                  1    wreg      void 
   745 ;; Registers used:
   746 ;;		wreg, fsr0l, fsr0h, status,2, status,0, btemp+1, pclath, cstack
   747 ;; Tracked objects:
   748 ;;		On entry : B00/0
   749 ;;		On exit  : 0/0
   750 ;;		Unchanged: 0/0
   751 ;; Data sizes:     COMMON   BANK0   BANK1   BANK3   BANK2
   752 ;;      Params:         0       0       0       0       0
   753 ;;      Locals:         0       0       0       0       0
   754 ;;      Temps:          0       4       0       0       0
   755 ;;      Totals:         0       4       0       0       0
   756 ;;Total ram usage:        4 bytes
   757 ;; Hardware stack levels required when called: 4
   758 ;; This function calls:
   759 ;;		_Lcd_Clear
   760 ;;		_Lcd_Init
   761 ;;		_Lcd_Set_Cursor
   762 ;;		_Lcd_Write_String
   763 ;;		___fldiv
   764 ;;		___flge
   765 ;;		___flmul
   766 ;;		___xxtofl
   767 ;;		_sprintf
   768 ;; This function is called by:
   769 ;;		Startup code after reset
   770 ;; This function uses a non-reentrant model
   771 ;;
   772                           
   773     0025                     _main:	
   774                           ;psect for function _main
   775                           
   776     0025                     l3803:	
   777                           ;incstack = 0
   778                           ; Regs used in _main: [wreg-fsr0h+status,2+status,0+btemp+1+pclath+cstack]
   779                           
   780                           
   781                           ;main.c: 61:    ADCON0bits.ADCS1 = 0 ;
   782     0025  30FF               	movlw	255
   783     0026  1683               	bsf	3,5	;RP0=1, select bank1
   784     0027  1303               	bcf	3,6	;RP1=0, select bank1
   785     0028  0086               	movwf	6	;volatile
   786     0029                     l3805:
   787                           
   788                           ;main.c: 62: 
   789     0029  1283               	bcf	3,5	;RP0=0, select bank0
   790     002A  1303               	bcf	3,6	;RP1=0, select bank0
   791     002B  0186               	clrf	6	;volatile
   792     002C                     l3807:
   793                           
   794                           ;main.c: 63:    ADCON1bits.ADFM = 0 ;
   795     002C  1683               	bsf	3,5	;RP0=1, select bank1
   796     002D  1303               	bcf	3,6	;RP1=0, select bank1
   797     002E  0187               	clrf	7	;volatile
   798     002F                     l3809:
   799                           
   800                           ;main.c: 64: 
   801     002F  1283               	bcf	3,5	;RP0=0, select bank0
   802     0030  1303               	bcf	3,6	;RP1=0, select bank0
   803     0031  0187               	clrf	7	;volatile
   804     0032                     l3811:
   805                           
   806                           ;main.c: 65:    ADRESL = 0x00;
   807     0032  1683               	bsf	3,5	;RP0=1, select bank1
   808     0033  1303               	bcf	3,6	;RP1=0, select bank1
   809     0034  0188               	clrf	8	;volatile
   810                           
   811                           ;main.c: 66:    ADRESH = 0x00;
   812     0035  307F               	movlw	127
   813     0036  0081               	movwf	1	;volatile
   814     0037                     l3813:
   815                           
   816                           ;main.c: 69: 
   817     0037  178B               	bsf	11,7	;volatile
   818     0038                     l3815:
   819                           
   820                           ;main.c: 70: 
   821     0038  170B               	bsf	11,6	;volatile
   822     0039                     l3817:
   823                           
   824                           ;main.c: 71:    Lcd_Init();
   825     0039  140C               	bsf	12,0	;volatile
   826     003A                     l3819:
   827                           
   828                           ;main.c: 75:    Lcd_Write_String("Relogio:");
   829     003A  1283               	bcf	3,5	;RP0=0, select bank0
   830     003B  1303               	bcf	3,6	;RP1=0, select bank0
   831     003C  1090               	bcf	16,1	;volatile
   832     003D                     l3821:
   833                           
   834                           ;main.c: 76: 
   835     003D  1610               	bsf	16,4	;volatile
   836     003E                     l3823:
   837                           
   838                           ;main.c: 77:    while (1){
   839     003E  1690               	bsf	16,5	;volatile
   840                           
   841                           ;main.c: 79:        sensorAbre = PORTBbits.RB5;
   842     003F  30DC               	movlw	220
   843     0040  008E               	movwf	14	;volatile
   844                           
   845                           ;main.c: 80:        sensorFecha = PORTBbits.RB6;
   846     0041  300B               	movlw	11
   847     0042  008F               	movwf	15	;volatile
   848     0043                     l3825:
   849                           
   850                           ;main.c: 82: 
   851     0043  1410               	bsf	16,0	;volatile
   852     0044                     l3827:
   853                           
   854                           ;main.c: 85:            trocado = 1;
   855     0044  1683               	bsf	3,5	;RP0=1, select bank1
   856     0045  1303               	bcf	3,6	;RP1=0, select bank1
   857     0046  101F               	bcf	31,0	;volatile
   858     0047                     l3829:
   859                           
   860                           ;main.c: 86:            _delay((unsigned long)((300)*(4000000/4000.0)));
   861     0047  149F               	bsf	31,1	;volatile
   862     0048                     l3831:
   863                           
   864                           ;main.c: 87:        }
   865     0048  151F               	bsf	31,2	;volatile
   866     0049                     l3833:
   867                           
   868                           ;main.c: 88: 
   869     0049  159F               	bsf	31,3	;volatile
   870     004A                     l3835:
   871                           
   872                           ;main.c: 91:             min = 59;
   873     004A  1283               	bcf	3,5	;RP0=0, select bank0
   874     004B  1303               	bcf	3,6	;RP1=0, select bank0
   875     004C  131F               	bcf	31,6	;volatile
   876     004D                     l3837:
   877                           
   878                           ;main.c: 92:             sec = 55;
   879     004D  139F               	bcf	31,7	;volatile
   880     004E                     l3839:
   881                           
   882                           ;main.c: 94:        }
   883     004E  1683               	bsf	3,5	;RP0=1, select bank1
   884     004F  1303               	bcf	3,6	;RP1=0, select bank1
   885     0050  139F               	bcf	31,7	;volatile
   886     0051                     l3841:
   887                           
   888                           ;main.c: 96:             hora = 18;
   889     0051  019E               	clrf	30	;volatile
   890     0052                     l3843:
   891                           
   892                           ;main.c: 97:             min = 29;
   893     0052  1283               	bcf	3,5	;RP0=0, select bank0
   894     0053  1303               	bcf	3,6	;RP1=0, select bank0
   895     0054  019E               	clrf	30	;volatile
   896     0055                     l3845:
   897                           
   898                           ;main.c: 99:             trocado = 0;
   899     0055  141F               	bsf	31,0	;volatile
   900     0056                     l3847:
   901                           
   902                           ;main.c: 102:        if(trocaHora == 3 && trocado == 1){
   903     0056  120A  118A  2778  120A  118A  	fcall	_Lcd_Init
   904     005B                     l3849:
   905                           
   906                           ;main.c: 103:             hora = 23;
   907     005B  160A  118A  275A  120A  118A  	fcall	_Lcd_Clear
   908     0060                     l3851:
   909                           
   910                           ;main.c: 105:             sec = 55;
   911     0060  01F6               	clrf	Lcd_Set_Cursor@b
   912     0061  0AF6               	incf	Lcd_Set_Cursor@b,f
   913     0062  3001               	movlw	1
   914     0063  120A  158A  20E6  120A  118A  	fcall	_Lcd_Set_Cursor
   915     0068                     l3853:
   916                           
   917                           ;main.c: 106:             trocado = 0;
   918     0068  3021               	movlw	(low ((STR_1-__stringbase)| (0+32768)))& (0+255)
   919     0069  00F7               	movwf	Lcd_Write_String@a
   920     006A  3080               	movlw	128
   921     006B  00F8               	movwf	Lcd_Write_String@a+1
   922     006C  120A  158A  205E  120A  118A  	fcall	_Lcd_Write_String
   923     0071                     l3855:
   924                           
   925                           ;main.c: 110:         if(sec == 60){
   926     0071  11FB               	bcf	_sensorAbre/(0+8),_sensorAbre& (0+7)
   927     0072  1283               	bcf	3,5	;RP0=0, select bank0
   928     0073  1303               	bcf	3,6	;RP1=0, select bank0
   929     0074  1E86               	btfss	6,5	;volatile
   930     0075  2877               	goto	u5815
   931     0076  15FB               	bsf	_sensorAbre/(0+8),_sensorAbre& (0+7)
   932     0077                     u5815:
   933     0077                     l3857:
   934                           
   935                           ;main.c: 111:            min++;
   936     0077  117B               	bcf	_sensorFecha/(0+8),_sensorFecha& (0+7)
   937     0078  1283               	bcf	3,5	;RP0=0, select bank0
   938     0079  1303               	bcf	3,6	;RP1=0, select bank0
   939     007A  1F06               	btfss	6,6	;volatile
   940     007B  287D               	goto	u5825
   941     007C  157B               	bsf	_sensorFecha/(0+8),_sensorFecha& (0+7)
   942     007D                     u5825:
   943     007D                     l3859:
   944                           
   945                           ;main.c: 112:            sec = 0;
   946     007D  10FB               	bcf	_btnTroca/(0+8),_btnTroca& (0+7)
   947     007E  1283               	bcf	3,5	;RP0=0, select bank0
   948     007F  1303               	bcf	3,6	;RP1=0, select bank0
   949     0080  1F86               	btfss	6,7	;volatile
   950     0081  2883               	goto	u5835
   951     0082  14FB               	bsf	_btnTroca/(0+8),_btnTroca& (0+7)
   952     0083                     u5835:
   953     0083                     l3861:
   954                           
   955                           ;main.c: 114:         if(min == 60){
   956     0083  18FB               	btfsc	_btnTroca/(0+8),_btnTroca& (0+7)
   957     0084  2886               	goto	u5841
   958     0085  2887               	goto	u5840
   959     0086                     u5841:
   960     0086  289F               	goto	l3867
   961     0087                     u5840:
   962     0087                     l3863:
   963                           
   964                           ;main.c: 115:             hora++;
   965     0087  3001               	movlw	1
   966     0088  1283               	bcf	3,5	;RP0=0, select bank0
   967     0089  1303               	bcf	3,6	;RP1=0, select bank0
   968     008A  07DC               	addwf	_trocaHora,f
   969     008B  1803               	skipnc
   970     008C  0ADD               	incf	_trocaHora+1,f
   971     008D  3000               	movlw	0
   972     008E  07DD               	addwf	_trocaHora+1,f
   973     008F                     l3865:
   974                           
   975                           ;main.c: 116:             min = 0;
   976     008F  147B               	bsf	_trocado/(0+8),_trocado& (0+7)
   977                           
   978                           ;main.c: 117:         }
   979     0090  3002               	movlw	2
   980     0091  1283               	bcf	3,5	;RP0=0, select bank0
   981     0092  1303               	bcf	3,6	;RP1=0, select bank0
   982     0093  00D6               	movwf	??_main+2
   983     0094  3086               	movlw	134
   984     0095  00D5               	movwf	??_main+1
   985     0096  3098               	movlw	152
   986     0097  00D4               	movwf	??_main
   987     0098                     u7037:
   988     0098  0BD4               	decfsz	??_main,f
   989     0099  2898               	goto	u7037
   990     009A  0BD5               	decfsz	??_main+1,f
   991     009B  2898               	goto	u7037
   992     009C  0BD6               	decfsz	??_main+2,f
   993     009D  2898               	goto	u7037
   994     009E  0000               	nop
   995     009F                     l3867:
   996                           
   997                           ;main.c: 120:             sec = 0;
   998     009F  1283               	bcf	3,5	;RP0=0, select bank0
   999     00A0  1303               	bcf	3,6	;RP1=0, select bank0
  1000     00A1  035C               	decf	_trocaHora,w
  1001     00A2  045D               	iorwf	_trocaHora+1,w
  1002     00A3  1D03               	btfss	3,2
  1003     00A4  28A6               	goto	u5851
  1004     00A5  28A7               	goto	u5850
  1005     00A6                     u5851:
  1006     00A6  28B8               	goto	l3875
  1007     00A7                     u5850:
  1008     00A7                     l3869:
  1009     00A7  1C7B               	btfss	_trocado/(0+8),_trocado& (0+7)
  1010     00A8  28AA               	goto	u5861
  1011     00A9  28AB               	goto	u5860
  1012     00AA                     u5861:
  1013     00AA  28B8               	goto	l3875
  1014     00AB                     u5860:
  1015     00AB                     l3871:
  1016                           
  1017                           ;main.c: 121:             hora = 0;
  1018     00AB  3006               	movlw	6
  1019     00AC  00DE               	movwf	_hora
  1020     00AD  3000               	movlw	0
  1021     00AE  00DF               	movwf	_hora+1
  1022                           
  1023                           ;main.c: 122:         }
  1024     00AF  303B               	movlw	59
  1025     00B0  00E0               	movwf	_min
  1026     00B1  3000               	movlw	0
  1027     00B2  00E1               	movwf	_min+1
  1028                           
  1029                           ;main.c: 123: 
  1030     00B3  3037               	movlw	55
  1031     00B4  00E2               	movwf	_sec
  1032     00B5  3000               	movlw	0
  1033     00B6  00E3               	movwf	_sec+1
  1034     00B7                     l3873:
  1035                           
  1036                           ;main.c: 124:         sprintf(buffer, "%2.2d : %2.2d : %2.2d", hora, min, sec);
  1037     00B7  107B               	bcf	_trocado/(0+8),_trocado& (0+7)
  1038     00B8                     l3875:
  1039                           
  1040                           ;main.c: 126:         Lcd_Write_String(buffer);
  1041     00B8  3002               	movlw	2
  1042     00B9  065C               	xorwf	_trocaHora,w
  1043     00BA  045D               	iorwf	_trocaHora+1,w
  1044     00BB  1D03               	btfss	3,2
  1045     00BC  28BE               	goto	u5871
  1046     00BD  28BF               	goto	u5870
  1047     00BE                     u5871:
  1048     00BE  28D0               	goto	l3883
  1049     00BF                     u5870:
  1050     00BF                     l3877:
  1051     00BF  1C7B               	btfss	_trocado/(0+8),_trocado& (0+7)
  1052     00C0  28C2               	goto	u5881
  1053     00C1  28C3               	goto	u5880
  1054     00C2                     u5881:
  1055     00C2  28D0               	goto	l3883
  1056     00C3                     u5880:
  1057     00C3                     l3879:
  1058                           
  1059                           ;main.c: 127: 
  1060     00C3  3012               	movlw	18
  1061     00C4  00DE               	movwf	_hora
  1062     00C5  3000               	movlw	0
  1063     00C6  00DF               	movwf	_hora+1
  1064                           
  1065                           ;main.c: 128:         if(deuPau == 0){
  1066     00C7  301D               	movlw	29
  1067     00C8  00E0               	movwf	_min
  1068     00C9  3000               	movlw	0
  1069     00CA  00E1               	movwf	_min+1
  1070                           
  1071                           ;main.c: 129:             ADCON0bits.CHS0 = 0;
  1072     00CB  3037               	movlw	55
  1073     00CC  00E2               	movwf	_sec
  1074     00CD  3000               	movlw	0
  1075     00CE  00E3               	movwf	_sec+1
  1076     00CF                     l3881:
  1077                           
  1078                           ;main.c: 130:             ADCON0bits.CHS1 = 0;
  1079     00CF  107B               	bcf	_trocado/(0+8),_trocado& (0+7)
  1080     00D0                     l3883:
  1081                           
  1082                           ;main.c: 133:             ADCON0bits.GO = 1;
  1083     00D0  3003               	movlw	3
  1084     00D1  065C               	xorwf	_trocaHora,w
  1085     00D2  045D               	iorwf	_trocaHora+1,w
  1086     00D3  1D03               	btfss	3,2
  1087     00D4  28D6               	goto	u5891
  1088     00D5  28D7               	goto	u5890
  1089     00D6                     u5891:
  1090     00D6  28EA               	goto	l3893
  1091     00D7                     u5890:
  1092     00D7                     l3885:
  1093     00D7  1C7B               	btfss	_trocado/(0+8),_trocado& (0+7)
  1094     00D8  28DA               	goto	u5901
  1095     00D9  28DB               	goto	u5900
  1096     00DA                     u5901:
  1097     00DA  28EA               	goto	l3893
  1098     00DB                     u5900:
  1099     00DB                     l3887:
  1100                           
  1101                           ;main.c: 134:             _delay((unsigned long)((10)*(4000000/4000000.0)));
  1102     00DB  3017               	movlw	23
  1103     00DC  00DE               	movwf	_hora
  1104     00DD  3000               	movlw	0
  1105     00DE  00DF               	movwf	_hora+1
  1106                           
  1107                           ;main.c: 135:             valor = ADRESH;
  1108     00DF  303B               	movlw	59
  1109     00E0  00E0               	movwf	_min
  1110     00E1  3000               	movlw	0
  1111     00E2  00E1               	movwf	_min+1
  1112                           
  1113                           ;main.c: 136:             temperatura = valor*4.88/10;
  1114     00E3  3037               	movlw	55
  1115     00E4  00E2               	movwf	_sec
  1116     00E5  3000               	movlw	0
  1117     00E6  00E3               	movwf	_sec+1
  1118     00E7                     l3889:
  1119                           
  1120                           ;main.c: 137: 
  1121     00E7  107B               	bcf	_trocado/(0+8),_trocado& (0+7)
  1122     00E8                     l3891:
  1123                           
  1124                           ;main.c: 138:             if(hora == 7 && min == 0 && sec == 0){
  1125     00E8  01DC               	clrf	_trocaHora
  1126     00E9  01DD               	clrf	_trocaHora+1
  1127     00EA                     l3893:
  1128                           
  1129                           ;main.c: 141:                     PORTCbits.RC1 = 1;
  1130     00EA  303C               	movlw	60
  1131     00EB  0662               	xorwf	_sec,w
  1132     00EC  0463               	iorwf	_sec+1,w
  1133     00ED  1D03               	btfss	3,2
  1134     00EE  28F0               	goto	u5911
  1135     00EF  28F1               	goto	u5910
  1136     00F0                     u5911:
  1137     00F0  28F9               	goto	l3899
  1138     00F1                     u5910:
  1139     00F1                     l3895:
  1140                           
  1141                           ;main.c: 142:                     testeCort = 1;
  1142     00F1  3001               	movlw	1
  1143     00F2  07E0               	addwf	_min,f
  1144     00F3  1803               	skipnc
  1145     00F4  0AE1               	incf	_min+1,f
  1146     00F5  3000               	movlw	0
  1147     00F6  07E1               	addwf	_min+1,f
  1148     00F7                     l3897:
  1149                           
  1150                           ;main.c: 143:                 }
  1151     00F7  01E2               	clrf	_sec
  1152     00F8  01E3               	clrf	_sec+1
  1153     00F9                     l3899:
  1154                           
  1155                           ;main.c: 145:                 if(testeVent == 1){
  1156     00F9  303C               	movlw	60
  1157     00FA  0660               	xorwf	_min,w
  1158     00FB  0461               	iorwf	_min+1,w
  1159     00FC  1D03               	btfss	3,2
  1160     00FD  28FF               	goto	u5921
  1161     00FE  2900               	goto	u5920
  1162     00FF                     u5921:
  1163     00FF  2908               	goto	l3905
  1164     0100                     u5920:
  1165     0100                     l3901:
  1166                           
  1167                           ;main.c: 146:                     PORTC = 0b0001010;
  1168     0100  3001               	movlw	1
  1169     0101  07DE               	addwf	_hora,f
  1170     0102  1803               	skipnc
  1171     0103  0ADF               	incf	_hora+1,f
  1172     0104  3000               	movlw	0
  1173     0105  07DF               	addwf	_hora+1,f
  1174     0106                     l3903:
  1175                           
  1176                           ;main.c: 147:                 }
  1177     0106  01E0               	clrf	_min
  1178     0107  01E1               	clrf	_min+1
  1179     0108                     l3905:
  1180                           
  1181                           ;main.c: 149:             }
  1182     0108  3018               	movlw	24
  1183     0109  065E               	xorwf	_hora,w
  1184     010A  045F               	iorwf	_hora+1,w
  1185     010B  1D03               	btfss	3,2
  1186     010C  290E               	goto	u5931
  1187     010D  290F               	goto	u5930
  1188     010E                     u5931:
  1189     010E  2915               	goto	l3909
  1190     010F                     u5930:
  1191     010F                     l3907:
  1192                           
  1193                           ;main.c: 150:             if(hora == 18 && min == 30 && sec == 0){
  1194     010F  01E0               	clrf	_min
  1195     0110  01E1               	clrf	_min+1
  1196                           
  1197                           ;main.c: 151:                 if(testeLuz == 0){
  1198     0111  01E2               	clrf	_sec
  1199     0112  01E3               	clrf	_sec+1
  1200                           
  1201                           ;main.c: 152:                     PORTCbits.RC0 = 1;
  1202     0113  01DE               	clrf	_hora
  1203     0114  01DF               	clrf	_hora+1
  1204     0115                     l3909:
  1205                           
  1206                           ;main.c: 155: 
  1207     0115  300B               	movlw	(low ((STR_2-__stringbase)| (0+32768)))& (0+255)
  1208     0116  00A5               	movwf	sprintf@f
  1209     0117  085F               	movf	_hora+1,w
  1210     0118  00A7               	movwf	?_sprintf+2
  1211     0119  085E               	movf	_hora,w
  1212     011A  00A6               	movwf	?_sprintf+1
  1213     011B  0861               	movf	_min+1,w
  1214     011C  00A9               	movwf	?_sprintf+4
  1215     011D  0860               	movf	_min,w
  1216     011E  00A8               	movwf	?_sprintf+3
  1217     011F  0863               	movf	_sec+1,w
  1218     0120  00AB               	movwf	?_sprintf+6
  1219     0121  0862               	movf	_sec,w
  1220     0122  00AA               	movwf	?_sprintf+5
  1221     0123  30A4               	movlw	(low (_buffer| 0))& (0+255)
  1222     0124  120A  118A  2585  120A  118A  	fcall	_sprintf
  1223     0129                     l3911:
  1224                           
  1225                           ;main.c: 156:                 if(RB6 == 1){
  1226     0129  01F6               	clrf	Lcd_Set_Cursor@b
  1227     012A  0AF6               	incf	Lcd_Set_Cursor@b,f
  1228     012B  3002               	movlw	2
  1229     012C  120A  158A  20E6  120A  118A  	fcall	_Lcd_Set_Cursor
  1230     0131                     l3913:
  1231                           
  1232                           ;main.c: 157:                     PORTCbits.RC2 = 1;
  1233     0131  30A4               	movlw	(low (_buffer| 0))& (0+255)
  1234     0132  00F7               	movwf	Lcd_Write_String@a
  1235     0133  3000               	movlw	0
  1236     0134  00F8               	movwf	Lcd_Write_String@a+1
  1237     0135  120A  158A  205E  120A  118A  	fcall	_Lcd_Write_String
  1238     013A                     l3915:
  1239                           
  1240                           ;main.c: 159: 
  1241     013A  1283               	bcf	3,5	;RP0=0, select bank0
  1242     013B  1303               	bcf	3,6	;RP1=0, select bank0
  1243     013C  0866               	movf	_deuPau,w
  1244     013D  0467               	iorwf	_deuPau+1,w
  1245     013E  1D03               	btfss	3,2
  1246     013F  2941               	goto	u5941
  1247     0140  2942               	goto	u5940
  1248     0141                     u5941:
  1249     0141  2ACD               	goto	l4039
  1250     0142                     u5940:
  1251     0142                     l3917:
  1252                           
  1253                           ;main.c: 160:                     if(testeVent == 1){
  1254     0142  119F               	bcf	31,3	;volatile
  1255                           
  1256                           ;main.c: 161:                         PORTC = 0b0001101;
  1257     0143  121F               	bcf	31,4	;volatile
  1258                           
  1259                           ;main.c: 162:                     }
  1260     0144  129F               	bcf	31,5	;volatile
  1261                           
  1262                           ;main.c: 164:                     PORTC = 0b0001001;
  1263     0145  151F               	bsf	31,2	;volatile
  1264     0146                     l3919:
  1265                           
  1266                           ;main.c: 165:                 }
  1267     0146  3002               	movlw	2
  1268     0147  1283               	bcf	3,5	;RP0=0, select bank0
  1269     0148  1303               	bcf	3,6	;RP1=0, select bank0
  1270     0149  00D4               	movwf	??_main
  1271     014A                     u7047:
  1272     014A  0BD4               	decfsz	??_main,f
  1273     014B  294A               	goto	u7047
  1274     014C  0000               	nop
  1275     014D                     l3921:
  1276                           
  1277                           ;main.c: 166: 
  1278     014D  1283               	bcf	3,5	;RP0=0, select bank0
  1279     014E  1303               	bcf	3,6	;RP1=0, select bank0
  1280     014F  081E               	movf	30,w	;volatile
  1281     0150  00D4               	movwf	??_main
  1282     0151  01D5               	clrf	??_main+1
  1283     0152  01D6               	clrf	??_main+2
  1284     0153  01D7               	clrf	??_main+3
  1285     0154  0857               	movf	??_main+3,w
  1286     0155  00F5               	movwf	___xxtofl@val+3
  1287     0156  0856               	movf	??_main+2,w
  1288     0157  00F4               	movwf	___xxtofl@val+2
  1289     0158  0855               	movf	??_main+1,w
  1290     0159  00F3               	movwf	___xxtofl@val+1
  1291     015A  0854               	movf	??_main,w
  1292     015B  00F2               	movwf	___xxtofl@val
  1293     015C  3000               	movlw	0
  1294     015D  120A  158A  222E  120A  118A  	fcall	___xxtofl
  1295     0162  0875               	movf	?___xxtofl+3,w
  1296     0163  1283               	bcf	3,5	;RP0=0, select bank0
  1297     0164  1303               	bcf	3,6	;RP1=0, select bank0
  1298     0165  00DB               	movwf	_valor+3
  1299     0166  0874               	movf	?___xxtofl+2,w
  1300     0167  00DA               	movwf	_valor+2
  1301     0168  0873               	movf	?___xxtofl+1,w
  1302     0169  00D9               	movwf	_valor+1
  1303     016A  0872               	movf	?___xxtofl,w
  1304     016B  00D8               	movwf	_valor
  1305     016C                     l3923:
  1306                           
  1307                           ;main.c: 167:             }
  1308     016C  3041               	movlw	65
  1309     016D  00BD               	movwf	___fldiv@a+3
  1310     016E  3020               	movlw	32
  1311     016F  00BC               	movwf	___fldiv@a+2
  1312     0170  3000               	movlw	0
  1313     0171  00BB               	movwf	___fldiv@a+1
  1314     0172  3000               	movlw	0
  1315     0173  00BA               	movwf	___fldiv@a
  1316     0174  3040               	movlw	64
  1317     0175  00A3               	movwf	___flmul@b+3
  1318     0176  309C               	movlw	156
  1319     0177  00A2               	movwf	___flmul@b+2
  1320     0178  3028               	movlw	40
  1321     0179  00A1               	movwf	___flmul@b+1
  1322     017A  30F6               	movlw	246
  1323     017B  00A0               	movwf	___flmul@b
  1324     017C  085B               	movf	_valor+3,w
  1325     017D  00A7               	movwf	___flmul@a+3
  1326     017E  085A               	movf	_valor+2,w
  1327     017F  00A6               	movwf	___flmul@a+2
  1328     0180  0859               	movf	_valor+1,w
  1329     0181  00A5               	movwf	___flmul@a+1
  1330     0182  0858               	movf	_valor,w
  1331     0183  00A4               	movwf	___flmul@a
  1332     0184  120A  158A  24BB  120A  118A  	fcall	___flmul
  1333     0189  1283               	bcf	3,5	;RP0=0, select bank0
  1334     018A  1303               	bcf	3,6	;RP1=0, select bank0
  1335     018B  0823               	movf	?___flmul+3,w
  1336     018C  00C1               	movwf	___fldiv@b+3
  1337     018D  0822               	movf	?___flmul+2,w
  1338     018E  00C0               	movwf	___fldiv@b+2
  1339     018F  0821               	movf	?___flmul+1,w
  1340     0190  00BF               	movwf	___fldiv@b+1
  1341     0191  0820               	movf	?___flmul,w
  1342     0192  00BE               	movwf	___fldiv@b
  1343     0193  120A  158A  22E8  120A  118A  	fcall	___fldiv
  1344     0198  1283               	bcf	3,5	;RP0=0, select bank0
  1345     0199  1303               	bcf	3,6	;RP1=0, select bank0
  1346     019A  083D               	movf	?___fldiv+3,w
  1347     019B  1683               	bsf	3,5	;RP0=1, select bank1
  1348     019C  1303               	bcf	3,6	;RP1=0, select bank1
  1349     019D  00A3               	movwf	(_temperatura+3)^(0+128)
  1350     019E  1283               	bcf	3,5	;RP0=0, select bank0
  1351     019F  1303               	bcf	3,6	;RP1=0, select bank0
  1352     01A0  083C               	movf	?___fldiv+2,w
  1353     01A1  1683               	bsf	3,5	;RP0=1, select bank1
  1354     01A2  1303               	bcf	3,6	;RP1=0, select bank1
  1355     01A3  00A2               	movwf	(_temperatura+2)^(0+128)
  1356     01A4  1283               	bcf	3,5	;RP0=0, select bank0
  1357     01A5  1303               	bcf	3,6	;RP1=0, select bank0
  1358     01A6  083B               	movf	?___fldiv+1,w
  1359     01A7  1683               	bsf	3,5	;RP0=1, select bank1
  1360     01A8  1303               	bcf	3,6	;RP1=0, select bank1
  1361     01A9  00A1               	movwf	(_temperatura+1)^(0+128)
  1362     01AA  1283               	bcf	3,5	;RP0=0, select bank0
  1363     01AB  1303               	bcf	3,6	;RP1=0, select bank0
  1364     01AC  083A               	movf	?___fldiv,w
  1365     01AD  1683               	bsf	3,5	;RP0=1, select bank1
  1366     01AE  1303               	bcf	3,6	;RP1=0, select bank1
  1367     01AF  00A0               	movwf	_temperatura^(0+128)
  1368     01B0                     l3925:
  1369                           
  1370                           ;main.c: 169:                 if(testeLuz == 1){
  1371     01B0  3007               	movlw	7
  1372     01B1  1283               	bcf	3,5	;RP0=0, select bank0
  1373     01B2  1303               	bcf	3,6	;RP1=0, select bank0
  1374     01B3  065E               	xorwf	_hora,w
  1375     01B4  045F               	iorwf	_hora+1,w
  1376     01B5  1D03               	btfss	3,2
  1377     01B6  29B8               	goto	u5951
  1378     01B7  29B9               	goto	u5950
  1379     01B8                     u5951:
  1380     01B8  29D6               	goto	l3941
  1381     01B9                     u5950:
  1382     01B9                     l3927:
  1383     01B9  0860               	movf	_min,w
  1384     01BA  0461               	iorwf	_min+1,w
  1385     01BB  1D03               	btfss	3,2
  1386     01BC  29BE               	goto	u5961
  1387     01BD  29BF               	goto	u5960
  1388     01BE                     u5961:
  1389     01BE  29D6               	goto	l3941
  1390     01BF                     u5960:
  1391     01BF                     l3929:
  1392     01BF  0862               	movf	_sec,w
  1393     01C0  0463               	iorwf	_sec+1,w
  1394     01C1  1D03               	btfss	3,2
  1395     01C2  29C4               	goto	u5971
  1396     01C3  29C5               	goto	u5970
  1397     01C4                     u5971:
  1398     01C4  29D6               	goto	l3941
  1399     01C5                     u5970:
  1400     01C5                     l3931:
  1401                           
  1402                           ;main.c: 171:                     PORTCbits.RC0 = 0;
  1403     01C5  1E86               	btfss	6,5	;volatile
  1404     01C6  29C8               	goto	u5981
  1405     01C7  29C9               	goto	u5980
  1406     01C8                     u5981:
  1407     01C8  29CE               	goto	l3937
  1408     01C9                     u5980:
  1409     01C9                     l3933:
  1410                           
  1411                           ;main.c: 172:                 }
  1412     01C9  1487               	bsf	7,1	;volatile
  1413     01CA                     l3935:
  1414                           
  1415                           ;main.c: 173:                 if(testeVent == 1){
  1416     01CA  3001               	movlw	1
  1417     01CB  00E8               	movwf	_testeCort
  1418     01CC  3000               	movlw	0
  1419     01CD  00E9               	movwf	_testeCort+1
  1420     01CE                     l3937:
  1421                           
  1422                           ;main.c: 176:             }
  1423     01CE  036A               	decf	_testeVent,w
  1424     01CF  046B               	iorwf	_testeVent+1,w
  1425     01D0  1D03               	btfss	3,2
  1426     01D1  29D3               	goto	u5991
  1427     01D2  29D4               	goto	u5990
  1428     01D3                     u5991:
  1429     01D3  29D6               	goto	l3941
  1430     01D4                     u5990:
  1431     01D4                     l3939:
  1432                           
  1433                           ;main.c: 177: 
  1434     01D4  300A               	movlw	10
  1435     01D5  0087               	movwf	7	;volatile
  1436     01D6                     l3941:
  1437                           
  1438                           ;main.c: 181:                 testeVent = 1;
  1439     01D6  3012               	movlw	18
  1440     01D7  065E               	xorwf	_hora,w
  1441     01D8  045F               	iorwf	_hora+1,w
  1442     01D9  1D03               	btfss	3,2
  1443     01DA  29DC               	goto	u6001
  1444     01DB  29DD               	goto	u6000
  1445     01DC                     u6001:
  1446     01DC  2A0F               	goto	l3967
  1447     01DD                     u6000:
  1448     01DD                     l3943:
  1449     01DD  301E               	movlw	30
  1450     01DE  0660               	xorwf	_min,w
  1451     01DF  0461               	iorwf	_min+1,w
  1452     01E0  1D03               	btfss	3,2
  1453     01E1  29E3               	goto	u6011
  1454     01E2  29E4               	goto	u6010
  1455     01E3                     u6011:
  1456     01E3  2A0F               	goto	l3967
  1457     01E4                     u6010:
  1458     01E4                     l3945:
  1459     01E4  0862               	movf	_sec,w
  1460     01E5  0463               	iorwf	_sec+1,w
  1461     01E6  1D03               	btfss	3,2
  1462     01E7  29E9               	goto	u6021
  1463     01E8  29EA               	goto	u6020
  1464     01E9                     u6021:
  1465     01E9  2A0F               	goto	l3967
  1466     01EA                     u6020:
  1467     01EA                     l3947:
  1468                           
  1469                           ;main.c: 182:                 if(testeCort == 1){
  1470     01EA  086C               	movf	_testeLuz,w
  1471     01EB  046D               	iorwf	_testeLuz+1,w
  1472     01EC  1D03               	btfss	3,2
  1473     01ED  29EF               	goto	u6031
  1474     01EE  29F0               	goto	u6030
  1475     01EF                     u6031:
  1476     01EF  29F5               	goto	l3953
  1477     01F0                     u6030:
  1478     01F0                     l3949:
  1479                           
  1480                           ;main.c: 183:                     PORTC = 0b00001010;
  1481     01F0  1407               	bsf	7,0	;volatile
  1482     01F1                     l3951:
  1483                           
  1484                           ;main.c: 184:                 }
  1485     01F1  3001               	movlw	1
  1486     01F2  00EC               	movwf	_testeLuz
  1487     01F3  3000               	movlw	0
  1488     01F4  00ED               	movwf	_testeLuz+1
  1489     01F5                     l3953:
  1490                           
  1491                           ;main.c: 187:                 }
  1492     01F5  1F06               	btfss	6,6	;volatile
  1493     01F6  29F8               	goto	u6041
  1494     01F7  29F9               	goto	u6040
  1495     01F8                     u6041:
  1496     01F8  2A07               	goto	l3963
  1497     01F9                     u6040:
  1498     01F9                     l3955:
  1499                           
  1500                           ;main.c: 188: 
  1501     01F9  1507               	bsf	7,2	;volatile
  1502     01FA                     l3957:
  1503                           
  1504                           ;main.c: 189:             }
  1505     01FA  3002               	movlw	2
  1506     01FB  00E8               	movwf	_testeCort
  1507     01FC  3000               	movlw	0
  1508     01FD  00E9               	movwf	_testeCort+1
  1509     01FE                     l3959:
  1510                           
  1511                           ;main.c: 191: 
  1512     01FE  036A               	decf	_testeVent,w
  1513     01FF  046B               	iorwf	_testeVent+1,w
  1514     0200  1D03               	btfss	3,2
  1515     0201  2A03               	goto	u6051
  1516     0202  2A04               	goto	u6050
  1517     0203                     u6051:
  1518     0203  2A0F               	goto	l3967
  1519     0204                     u6050:
  1520     0204                     l3961:
  1521                           
  1522                           ;main.c: 192:                 PORTCbits.RC3 = 0;
  1523     0204  300D               	movlw	13
  1524     0205  0087               	movwf	7	;volatile
  1525     0206  2A0F               	goto	l3967
  1526     0207                     l3963:
  1527     0207  036A               	decf	_testeVent,w
  1528     0208  046B               	iorwf	_testeVent+1,w
  1529     0209  1D03               	btfss	3,2
  1530     020A  2A0C               	goto	u6061
  1531     020B  2A0D               	goto	u6060
  1532     020C                     u6061:
  1533     020C  2A0F               	goto	l3967
  1534     020D                     u6060:
  1535     020D                     l3965:
  1536                           
  1537                           ;main.c: 195:                 if(testeCort == 1){
  1538     020D  3009               	movlw	9
  1539     020E  0087               	movwf	7	;volatile
  1540     020F                     l3967:
  1541                           
  1542                           ;main.c: 199:                     PORTC = 0b00000101;
  1543     020F  085E               	movf	_hora,w
  1544     0210  045F               	iorwf	_hora+1,w
  1545     0211  1D03               	btfss	3,2
  1546     0212  2A14               	goto	u6071
  1547     0213  2A15               	goto	u6070
  1548     0214                     u6071:
  1549     0214  2A32               	goto	l3983
  1550     0215                     u6070:
  1551     0215                     l3969:
  1552     0215  0860               	movf	_min,w
  1553     0216  0461               	iorwf	_min+1,w
  1554     0217  1D03               	btfss	3,2
  1555     0218  2A1A               	goto	u6081
  1556     0219  2A1B               	goto	u6080
  1557     021A                     u6081:
  1558     021A  2A32               	goto	l3983
  1559     021B                     u6080:
  1560     021B                     l3971:
  1561     021B  0862               	movf	_sec,w
  1562     021C  0463               	iorwf	_sec+1,w
  1563     021D  1D03               	btfss	3,2
  1564     021E  2A20               	goto	u6091
  1565     021F  2A21               	goto	u6090
  1566     0220                     u6091:
  1567     0220  2A32               	goto	l3983
  1568     0221                     u6090:
  1569     0221                     l3973:
  1570                           
  1571                           ;main.c: 200:                 }
  1572     0221  036C               	decf	_testeLuz,w
  1573     0222  046D               	iorwf	_testeLuz+1,w
  1574     0223  1D03               	btfss	3,2
  1575     0224  2A26               	goto	u6101
  1576     0225  2A27               	goto	u6100
  1577     0226                     u6101:
  1578     0226  2A2A               	goto	l3979
  1579     0227                     u6100:
  1580     0227                     l3975:
  1581                           
  1582                           ;main.c: 201: 
  1583     0227  01EC               	clrf	_testeLuz
  1584     0228  01ED               	clrf	_testeLuz+1
  1585     0229                     l3977:
  1586                           
  1587                           ;main.c: 202:             }
  1588     0229  1007               	bcf	7,0	;volatile
  1589     022A                     l3979:
  1590                           
  1591                           ;main.c: 204: 
  1592     022A  036A               	decf	_testeVent,w
  1593     022B  046B               	iorwf	_testeVent+1,w
  1594     022C  1D03               	btfss	3,2
  1595     022D  2A2F               	goto	u6111
  1596     022E  2A30               	goto	u6110
  1597     022F                     u6111:
  1598     022F  2A32               	goto	l3983
  1599     0230                     u6110:
  1600     0230                     l3981:
  1601                           
  1602                           ;main.c: 205:             if(RB6 == 0 && testeCort == 2){
  1603     0230  3008               	movlw	8
  1604     0231  0087               	movwf	7	;volatile
  1605     0232                     l3983:
  1606                           
  1607                           ;main.c: 209:                     PORTC = 0b0001001;
  1608     0232  085B               	movf	_valor+3,w
  1609     0233  00F5               	movwf	___flge@ff1+3
  1610     0234  085A               	movf	_valor+2,w
  1611     0235  00F4               	movwf	___flge@ff1+2
  1612     0236  0859               	movf	_valor+1,w
  1613     0237  00F3               	movwf	___flge@ff1+1
  1614     0238  0858               	movf	_valor,w
  1615     0239  00F2               	movwf	___flge@ff1
  1616     023A  3041               	movlw	65
  1617     023B  00F9               	movwf	___flge@ff2+3
  1618     023C  3060               	movlw	96
  1619     023D  00F8               	movwf	___flge@ff2+2
  1620     023E  3000               	movlw	0
  1621     023F  00F7               	movwf	___flge@ff2+1
  1622     0240  3000               	movlw	0
  1623     0241  00F6               	movwf	___flge@ff2
  1624     0242  120A  158A  218A  120A  118A  	fcall	___flge
  1625     0247  1C03               	btfss	3,0
  1626     0248  2A4A               	goto	u6121
  1627     0249  2A4B               	goto	u6120
  1628     024A                     u6121:
  1629     024A  2A69               	goto	l3999
  1630     024B                     u6120:
  1631     024B                     l3985:
  1632     024B  1283               	bcf	3,5	;RP0=0, select bank0
  1633     024C  1303               	bcf	3,6	;RP1=0, select bank0
  1634     024D  086A               	movf	_testeVent,w
  1635     024E  046B               	iorwf	_testeVent+1,w
  1636     024F  1D03               	btfss	3,2
  1637     0250  2A52               	goto	u6131
  1638     0251  2A53               	goto	u6130
  1639     0252                     u6131:
  1640     0252  2A69               	goto	l3999
  1641     0253                     u6130:
  1642     0253                     l3987:
  1643                           
  1644                           ;main.c: 211:             }
  1645     0253  1587               	bsf	7,3	;volatile
  1646     0254                     l3989:
  1647                           
  1648                           ;main.c: 212: 
  1649     0254  3001               	movlw	1
  1650     0255  00EA               	movwf	_testeVent
  1651     0256  3000               	movlw	0
  1652     0257  00EB               	movwf	_testeVent+1
  1653     0258                     l3991:
  1654                           
  1655                           ;main.c: 213:             if(RB5 == 0 && testeCort == 1){
  1656     0258  0368               	decf	_testeCort,w
  1657     0259  0469               	iorwf	_testeCort+1,w
  1658     025A  1D03               	btfss	3,2
  1659     025B  2A5D               	goto	u6141
  1660     025C  2A5E               	goto	u6140
  1661     025D                     u6141:
  1662     025D  2A60               	goto	l3995
  1663     025E                     u6140:
  1664     025E                     l3993:
  1665                           
  1666                           ;main.c: 214:                 PORTCbits.RC1 = 0;
  1667     025E  300A               	movlw	10
  1668     025F  0087               	movwf	7	;volatile
  1669     0260                     l3995:
  1670                           
  1671                           ;main.c: 216:                 if(testeVent == 1){
  1672     0260  3002               	movlw	2
  1673     0261  0668               	xorwf	_testeCort,w
  1674     0262  0469               	iorwf	_testeCort+1,w
  1675     0263  1D03               	btfss	3,2
  1676     0264  2A66               	goto	u6151
  1677     0265  2A67               	goto	u6150
  1678     0266                     u6151:
  1679     0266  2A69               	goto	l3999
  1680     0267                     u6150:
  1681     0267                     l3997:
  1682                           
  1683                           ;main.c: 217:                     PORTC = 0b0001000;
  1684     0267  300D               	movlw	13
  1685     0268  0087               	movwf	7	;volatile
  1686     0269                     l3999:
  1687                           
  1688                           ;main.c: 221:         if(deuPau == 1){
  1689     0269  1283               	bcf	3,5	;RP0=0, select bank0
  1690     026A  1303               	bcf	3,6	;RP1=0, select bank0
  1691     026B  085B               	movf	_valor+3,w
  1692     026C  00F5               	movwf	___flge@ff1+3
  1693     026D  085A               	movf	_valor+2,w
  1694     026E  00F4               	movwf	___flge@ff1+2
  1695     026F  0859               	movf	_valor+1,w
  1696     0270  00F3               	movwf	___flge@ff1+1
  1697     0271  0858               	movf	_valor,w
  1698     0272  00F2               	movwf	___flge@ff1
  1699     0273  3041               	movlw	65
  1700     0274  00F9               	movwf	___flge@ff2+3
  1701     0275  3060               	movlw	96
  1702     0276  00F8               	movwf	___flge@ff2+2
  1703     0277  3000               	movlw	0
  1704     0278  00F7               	movwf	___flge@ff2+1
  1705     0279  3000               	movlw	0
  1706     027A  00F6               	movwf	___flge@ff2
  1707     027B  120A  158A  218A  120A  118A  	fcall	___flge
  1708     0280  1803               	btfsc	3,0
  1709     0281  2A83               	goto	u6161
  1710     0282  2A84               	goto	u6160
  1711     0283                     u6161:
  1712     0283  2AA0               	goto	l4015
  1713     0284                     u6160:
  1714     0284                     l4001:
  1715     0284  1283               	bcf	3,5	;RP0=0, select bank0
  1716     0285  1303               	bcf	3,6	;RP1=0, select bank0
  1717     0286  036A               	decf	_testeVent,w
  1718     0287  046B               	iorwf	_testeVent+1,w
  1719     0288  1D03               	btfss	3,2
  1720     0289  2A8B               	goto	u6171
  1721     028A  2A8C               	goto	u6170
  1722     028B                     u6171:
  1723     028B  2AA0               	goto	l4015
  1724     028C                     u6170:
  1725     028C                     l4003:
  1726                           
  1727                           ;main.c: 223:             btnLuz = PORTBbits.RB1;
  1728     028C  1187               	bcf	7,3	;volatile
  1729     028D                     l4005:
  1730                           
  1731                           ;main.c: 224:             btnAbre = PORTBbits.RB2;
  1732     028D  01EA               	clrf	_testeVent
  1733     028E  01EB               	clrf	_testeVent+1
  1734     028F                     l4007:
  1735                           
  1736                           ;main.c: 226:             btnVent = PORTBbits.RB4;
  1737     028F  0368               	decf	_testeCort,w
  1738     0290  0469               	iorwf	_testeCort+1,w
  1739     0291  1D03               	btfss	3,2
  1740     0292  2A94               	goto	u6181
  1741     0293  2A95               	goto	u6180
  1742     0294                     u6181:
  1743     0294  2A97               	goto	l4011
  1744     0295                     u6180:
  1745     0295                     l4009:
  1746                           
  1747                           ;main.c: 227: 
  1748     0295  3002               	movlw	2
  1749     0296  0087               	movwf	7	;volatile
  1750     0297                     l4011:
  1751                           
  1752                           ;main.c: 229: 
  1753     0297  3002               	movlw	2
  1754     0298  0668               	xorwf	_testeCort,w
  1755     0299  0469               	iorwf	_testeCort+1,w
  1756     029A  1D03               	btfss	3,2
  1757     029B  2A9D               	goto	u6191
  1758     029C  2A9E               	goto	u6190
  1759     029D                     u6191:
  1760     029D  2AA0               	goto	l4015
  1761     029E                     u6190:
  1762     029E                     l4013:
  1763                           
  1764                           ;main.c: 230:                 PORTCbits.RC0 = 1;
  1765     029E  3005               	movlw	5
  1766     029F  0087               	movwf	7	;volatile
  1767     02A0                     l4015:
  1768                           
  1769                           ;main.c: 236: 
  1770     02A0  1283               	bcf	3,5	;RP0=0, select bank0
  1771     02A1  1303               	bcf	3,6	;RP1=0, select bank0
  1772     02A2  1B06               	btfsc	6,6	;volatile
  1773     02A3  2AA5               	goto	u6201
  1774     02A4  2AA6               	goto	u6200
  1775     02A5                     u6201:
  1776     02A5  2AB8               	goto	l4027
  1777     02A6                     u6200:
  1778     02A6                     l4017:
  1779     02A6  3002               	movlw	2
  1780     02A7  0668               	xorwf	_testeCort,w
  1781     02A8  0469               	iorwf	_testeCort+1,w
  1782     02A9  1D03               	btfss	3,2
  1783     02AA  2AAC               	goto	u6211
  1784     02AB  2AAD               	goto	u6210
  1785     02AC                     u6211:
  1786     02AC  2AB8               	goto	l4027
  1787     02AD                     u6210:
  1788     02AD                     l4019:
  1789                           
  1790                           ;main.c: 237:                 if(testeVent == 1 && testeCort >= 1){
  1791     02AD  1107               	bcf	7,2	;volatile
  1792     02AE                     l4021:
  1793                           
  1794                           ;main.c: 238:                     if(testeCort == 1){
  1795     02AE  01E8               	clrf	_testeCort
  1796     02AF  01E9               	clrf	_testeCort+1
  1797     02B0                     l4023:
  1798                           
  1799                           ;main.c: 239:                         PORTC = 0b00001011;
  1800     02B0  036A               	decf	_testeVent,w
  1801     02B1  046B               	iorwf	_testeVent+1,w
  1802     02B2  1D03               	btfss	3,2
  1803     02B3  2AB5               	goto	u6221
  1804     02B4  2AB6               	goto	u6220
  1805     02B5                     u6221:
  1806     02B5  2AB8               	goto	l4027
  1807     02B6                     u6220:
  1808     02B6                     l4025:
  1809                           
  1810                           ;main.c: 240:                     }
  1811     02B6  3009               	movlw	9
  1812     02B7  0087               	movwf	7	;volatile
  1813     02B8                     l4027:
  1814                           
  1815                           ;main.c: 244:                 }
  1816     02B8  1A86               	btfsc	6,5	;volatile
  1817     02B9  2ABB               	goto	u6231
  1818     02BA  2ABC               	goto	u6230
  1819     02BB                     u6231:
  1820     02BB  2ACD               	goto	l4039
  1821     02BC                     u6230:
  1822     02BC                     l4029:
  1823     02BC  0368               	decf	_testeCort,w
  1824     02BD  0469               	iorwf	_testeCort+1,w
  1825     02BE  1D03               	btfss	3,2
  1826     02BF  2AC1               	goto	u6241
  1827     02C0  2AC2               	goto	u6240
  1828     02C1                     u6241:
  1829     02C1  2ACD               	goto	l4039
  1830     02C2                     u6240:
  1831     02C2                     l4031:
  1832                           
  1833                           ;main.c: 245: 
  1834     02C2  1087               	bcf	7,1	;volatile
  1835     02C3                     l4033:
  1836                           
  1837                           ;main.c: 246:                 if(testeCort >= 1 && testeVent == 0){
  1838     02C3  01E8               	clrf	_testeCort
  1839     02C4  01E9               	clrf	_testeCort+1
  1840     02C5                     l4035:
  1841                           
  1842                           ;main.c: 247:                     if(testeCort == 1){
  1843     02C5  036A               	decf	_testeVent,w
  1844     02C6  046B               	iorwf	_testeVent+1,w
  1845     02C7  1D03               	btfss	3,2
  1846     02C8  2ACA               	goto	u6251
  1847     02C9  2ACB               	goto	u6250
  1848     02CA                     u6251:
  1849     02CA  2ACD               	goto	l4039
  1850     02CB                     u6250:
  1851     02CB                     l4037:
  1852                           
  1853                           ;main.c: 248:                         PORTC = 0b00000011;
  1854     02CB  3008               	movlw	8
  1855     02CC  0087               	movwf	7	;volatile
  1856     02CD                     l4039:
  1857                           
  1858                           ;main.c: 252:                     }
  1859     02CD  0366               	decf	_deuPau,w
  1860     02CE  0467               	iorwf	_deuPau+1,w
  1861     02CF  1D03               	btfss	3,2
  1862     02D0  2AD2               	goto	u6261
  1863     02D1  2AD3               	goto	u6260
  1864     02D2                     u6261:
  1865     02D2  2871               	goto	l3855
  1866     02D3                     u6260:
  1867     02D3                     l4041:
  1868                           
  1869                           ;main.c: 254:             }
  1870     02D3  13FB               	bcf	_btnLuz/(0+8),_btnLuz& (0+7)
  1871     02D4  1C86               	btfss	6,1	;volatile
  1872     02D5  2AD7               	goto	u6275
  1873     02D6  17FB               	bsf	_btnLuz/(0+8),_btnLuz& (0+7)
  1874     02D7                     u6275:
  1875                           
  1876                           ;main.c: 255:             if(btnVent == 0){
  1877     02D7  137B               	bcf	_btnAbre/(0+8),_btnAbre& (0+7)
  1878     02D8  1283               	bcf	3,5	;RP0=0, select bank0
  1879     02D9  1303               	bcf	3,6	;RP1=0, select bank0
  1880     02DA  1D06               	btfss	6,2	;volatile
  1881     02DB  2ADD               	goto	u6285
  1882     02DC  177B               	bsf	_btnAbre/(0+8),_btnAbre& (0+7)
  1883     02DD                     u6285:
  1884                           
  1885                           ;main.c: 256: 
  1886     02DD  12FB               	bcf	_btnFecha/(0+8),_btnFecha& (0+7)
  1887     02DE  1283               	bcf	3,5	;RP0=0, select bank0
  1888     02DF  1303               	bcf	3,6	;RP1=0, select bank0
  1889     02E0  1D86               	btfss	6,3	;volatile
  1890     02E1  2AE3               	goto	u6295
  1891     02E2  16FB               	bsf	_btnFecha/(0+8),_btnFecha& (0+7)
  1892     02E3                     u6295:
  1893                           
  1894                           ;main.c: 257:                 PORTCbits.RC3 = 1;
  1895     02E3  127B               	bcf	_btnVent/(0+8),_btnVent& (0+7)
  1896     02E4  1283               	bcf	3,5	;RP0=0, select bank0
  1897     02E5  1303               	bcf	3,6	;RP1=0, select bank0
  1898     02E6  1E06               	btfss	6,4	;volatile
  1899     02E7  2AE9               	goto	u6305
  1900     02E8  167B               	bsf	_btnVent/(0+8),_btnVent& (0+7)
  1901     02E9                     u6305:
  1902                           
  1903                           ;main.c: 259: 
  1904     02E9  1BFB               	btfsc	_btnLuz/(0+8),_btnLuz& (0+7)
  1905     02EA  2AEC               	goto	u6311
  1906     02EB  2AED               	goto	u6310
  1907     02EC                     u6311:
  1908     02EC  2B50               	goto	l4077
  1909     02ED                     u6310:
  1910     02ED                     l4043:
  1911                           
  1912                           ;main.c: 261: 
  1913     02ED  1283               	bcf	3,5	;RP0=0, select bank0
  1914     02EE  1303               	bcf	3,6	;RP1=0, select bank0
  1915     02EF  1407               	bsf	7,0	;volatile
  1916     02F0                     l4045:
  1917                           
  1918                           ;main.c: 262:                     if(testeCort == 1){
  1919     02F0  3001               	movlw	1
  1920     02F1  00EC               	movwf	_testeLuz
  1921     02F2  3000               	movlw	0
  1922     02F3  00ED               	movwf	_testeLuz+1
  1923     02F4                     l4047:
  1924                           
  1925                           ;main.c: 264:                     }
  1926     02F4  036A               	decf	_testeVent,w
  1927     02F5  046B               	iorwf	_testeVent+1,w
  1928     02F6  1D03               	btfss	3,2
  1929     02F7  2AF9               	goto	u6321
  1930     02F8  2AFA               	goto	u6320
  1931     02F9                     u6321:
  1932     02F9  2B02               	goto	l4053
  1933     02FA                     u6320:
  1934     02FA                     l4049:
  1935     02FA  0868               	movf	_testeCort,w
  1936     02FB  0469               	iorwf	_testeCort+1,w
  1937     02FC  1D03               	btfss	3,2
  1938     02FD  2AFF               	goto	u6331
  1939     02FE  2B00               	goto	u6330
  1940     02FF                     u6331:
  1941     02FF  2B02               	goto	l4053
  1942     0300                     u6330:
  1943     0300                     l4051:
  1944                           
  1945                           ;main.c: 265:                     if(testeCort == 2){
  1946     0300  3009               	movlw	9
  1947     0301  0087               	movwf	7	;volatile
  1948     0302                     l4053:
  1949                           
  1950                           ;main.c: 268: 
  1951     0302  036A               	decf	_testeVent,w
  1952     0303  046B               	iorwf	_testeVent+1,w
  1953     0304  1D03               	btfss	3,2
  1954     0305  2B07               	goto	u6341
  1955     0306  2B08               	goto	u6340
  1956     0307                     u6341:
  1957     0307  2B28               	goto	l4065
  1958     0308                     u6340:
  1959     0308                     l4055:
  1960     0308  0869               	movf	_testeCort+1,w
  1961     0309  3A80               	xorlw	128
  1962     030A  00FF               	movwf	btemp+1
  1963     030B  3080               	movlw	128
  1964     030C  027F               	subwf	btemp+1,w
  1965     030D  1D03               	skipz
  1966     030E  2B11               	goto	u6355
  1967     030F  3001               	movlw	1
  1968     0310  0268               	subwf	_testeCort,w
  1969     0311                     u6355:
  1970     0311  1C03               	skipc
  1971     0312  2B14               	goto	u6351
  1972     0313  2B15               	goto	u6350
  1973     0314                     u6351:
  1974     0314  2B28               	goto	l4065
  1975     0315                     u6350:
  1976     0315                     l4057:
  1977                           
  1978                           ;main.c: 269:                 }
  1979     0315  1283               	bcf	3,5	;RP0=0, select bank0
  1980     0316  1303               	bcf	3,6	;RP1=0, select bank0
  1981     0317  0368               	decf	_testeCort,w
  1982     0318  0469               	iorwf	_testeCort+1,w
  1983     0319  1D03               	btfss	3,2
  1984     031A  2B1C               	goto	u6361
  1985     031B  2B1D               	goto	u6360
  1986     031C                     u6361:
  1987     031C  2B1F               	goto	l4061
  1988     031D                     u6360:
  1989     031D                     l4059:
  1990                           
  1991                           ;main.c: 270: 
  1992     031D  300B               	movlw	11
  1993     031E  0087               	movwf	7	;volatile
  1994     031F                     l4061:
  1995                           
  1996                           ;main.c: 272:                     PORTC = 0b00001001;
  1997     031F  3002               	movlw	2
  1998     0320  0668               	xorwf	_testeCort,w
  1999     0321  0469               	iorwf	_testeCort+1,w
  2000     0322  1D03               	btfss	3,2
  2001     0323  2B25               	goto	u6371
  2002     0324  2B26               	goto	u6370
  2003     0325                     u6371:
  2004     0325  2B28               	goto	l4065
  2005     0326                     u6370:
  2006     0326                     l4063:
  2007                           
  2008                           ;main.c: 273:                 }
  2009     0326  300D               	movlw	13
  2010     0327  0087               	movwf	7	;volatile
  2011     0328                     l4065:
  2012                           
  2013                           ;main.c: 277:                         PORTC = 0b00001010;
  2014     0328  1283               	bcf	3,5	;RP0=0, select bank0
  2015     0329  1303               	bcf	3,6	;RP1=0, select bank0
  2016     032A  0869               	movf	_testeCort+1,w
  2017     032B  3A80               	xorlw	128
  2018     032C  00FF               	movwf	btemp+1
  2019     032D  3080               	movlw	128
  2020     032E  027F               	subwf	btemp+1,w
  2021     032F  1D03               	skipz
  2022     0330  2B33               	goto	u6385
  2023     0331  3001               	movlw	1
  2024     0332  0268               	subwf	_testeCort,w
  2025     0333                     u6385:
  2026     0333  1C03               	skipc
  2027     0334  2B36               	goto	u6381
  2028     0335  2B37               	goto	u6380
  2029     0336                     u6381:
  2030     0336  2B50               	goto	l4077
  2031     0337                     u6380:
  2032     0337                     l4067:
  2033     0337  1283               	bcf	3,5	;RP0=0, select bank0
  2034     0338  1303               	bcf	3,6	;RP1=0, select bank0
  2035     0339  086A               	movf	_testeVent,w
  2036     033A  046B               	iorwf	_testeVent+1,w
  2037     033B  1D03               	btfss	3,2
  2038     033C  2B3E               	goto	u6391
  2039     033D  2B3F               	goto	u6390
  2040     033E                     u6391:
  2041     033E  2B50               	goto	l4077
  2042     033F                     u6390:
  2043     033F                     l4069:
  2044                           
  2045                           ;main.c: 278:                     }
  2046     033F  0368               	decf	_testeCort,w
  2047     0340  0469               	iorwf	_testeCort+1,w
  2048     0341  1D03               	btfss	3,2
  2049     0342  2B44               	goto	u6401
  2050     0343  2B45               	goto	u6400
  2051     0344                     u6401:
  2052     0344  2B47               	goto	l4073
  2053     0345                     u6400:
  2054     0345                     l4071:
  2055                           
  2056                           ;main.c: 279:                     if(testeCort == 2){
  2057     0345  3003               	movlw	3
  2058     0346  0087               	movwf	7	;volatile
  2059     0347                     l4073:
  2060                           
  2061                           ;main.c: 281:                     }
  2062     0347  3002               	movlw	2
  2063     0348  0668               	xorwf	_testeCort,w
  2064     0349  0469               	iorwf	_testeCort+1,w
  2065     034A  1D03               	btfss	3,2
  2066     034B  2B4D               	goto	u6411
  2067     034C  2B4E               	goto	u6410
  2068     034D                     u6411:
  2069     034D  2B50               	goto	l4077
  2070     034E                     u6410:
  2071     034E                     l4075:
  2072                           
  2073                           ;main.c: 282:                 }
  2074     034E  3005               	movlw	5
  2075     034F  0087               	movwf	7	;volatile
  2076     0350                     l4077:
  2077                           
  2078                           ;main.c: 286: 
  2079     0350  1A7B               	btfsc	_btnVent/(0+8),_btnVent& (0+7)
  2080     0351  2B53               	goto	u6421
  2081     0352  2B54               	goto	u6420
  2082     0353                     u6421:
  2083     0353  2BB7               	goto	l4113
  2084     0354                     u6420:
  2085     0354                     l4079:
  2086                           
  2087                           ;main.c: 288:                     testeCort = 1;
  2088     0354  1283               	bcf	3,5	;RP0=0, select bank0
  2089     0355  1303               	bcf	3,6	;RP1=0, select bank0
  2090     0356  1587               	bsf	7,3	;volatile
  2091     0357                     l4081:
  2092                           
  2093                           ;main.c: 289:                     PORTCbits.RC1 = 1;
  2094     0357  3001               	movlw	1
  2095     0358  00EA               	movwf	_testeVent
  2096     0359  3000               	movlw	0
  2097     035A  00EB               	movwf	_testeVent+1
  2098     035B                     l4083:
  2099                           
  2100                           ;main.c: 291: 
  2101     035B  036C               	decf	_testeLuz,w
  2102     035C  046D               	iorwf	_testeLuz+1,w
  2103     035D  1D03               	btfss	3,2
  2104     035E  2B60               	goto	u6431
  2105     035F  2B61               	goto	u6430
  2106     0360                     u6431:
  2107     0360  2B81               	goto	l4095
  2108     0361                     u6430:
  2109     0361                     l4085:
  2110     0361  0869               	movf	_testeCort+1,w
  2111     0362  3A80               	xorlw	128
  2112     0363  00FF               	movwf	btemp+1
  2113     0364  3080               	movlw	128
  2114     0365  027F               	subwf	btemp+1,w
  2115     0366  1D03               	skipz
  2116     0367  2B6A               	goto	u6445
  2117     0368  3001               	movlw	1
  2118     0369  0268               	subwf	_testeCort,w
  2119     036A                     u6445:
  2120     036A  1C03               	skipc
  2121     036B  2B6D               	goto	u6441
  2122     036C  2B6E               	goto	u6440
  2123     036D                     u6441:
  2124     036D  2B81               	goto	l4095
  2125     036E                     u6440:
  2126     036E                     l4087:
  2127                           
  2128                           ;main.c: 293:                     testeCort = 2;
  2129     036E  1283               	bcf	3,5	;RP0=0, select bank0
  2130     036F  1303               	bcf	3,6	;RP1=0, select bank0
  2131     0370  0368               	decf	_testeCort,w
  2132     0371  0469               	iorwf	_testeCort+1,w
  2133     0372  1D03               	btfss	3,2
  2134     0373  2B75               	goto	u6451
  2135     0374  2B76               	goto	u6450
  2136     0375                     u6451:
  2137     0375  2B78               	goto	l4091
  2138     0376                     u6450:
  2139     0376                     l4089:
  2140                           
  2141                           ;main.c: 294:                     PORTCbits.RC2 = 1;
  2142     0376  300B               	movlw	11
  2143     0377  0087               	movwf	7	;volatile
  2144     0378                     l4091:
  2145                           
  2146                           ;main.c: 296: 
  2147     0378  3002               	movlw	2
  2148     0379  0668               	xorwf	_testeCort,w
  2149     037A  0469               	iorwf	_testeCort+1,w
  2150     037B  1D03               	btfss	3,2
  2151     037C  2B7E               	goto	u6461
  2152     037D  2B7F               	goto	u6460
  2153     037E                     u6461:
  2154     037E  2B81               	goto	l4095
  2155     037F                     u6460:
  2156     037F                     l4093:
  2157                           
  2158                           ;main.c: 297: 
  2159     037F  300D               	movlw	13
  2160     0380  0087               	movwf	7	;volatile
  2161     0381                     l4095:
  2162                           
  2163                           ;main.c: 302:                             PORTC = 0b00001011;
  2164     0381  1283               	bcf	3,5	;RP0=0, select bank0
  2165     0382  1303               	bcf	3,6	;RP1=0, select bank0
  2166     0383  036C               	decf	_testeLuz,w
  2167     0384  046D               	iorwf	_testeLuz+1,w
  2168     0385  1D03               	btfss	3,2
  2169     0386  2B88               	goto	u6471
  2170     0387  2B89               	goto	u6470
  2171     0388                     u6471:
  2172     0388  2B91               	goto	l4101
  2173     0389                     u6470:
  2174     0389                     l4097:
  2175     0389  0868               	movf	_testeCort,w
  2176     038A  0469               	iorwf	_testeCort+1,w
  2177     038B  1D03               	btfss	3,2
  2178     038C  2B8E               	goto	u6481
  2179     038D  2B8F               	goto	u6480
  2180     038E                     u6481:
  2181     038E  2B91               	goto	l4101
  2182     038F                     u6480:
  2183     038F                     l4099:
  2184                           
  2185                           ;main.c: 303:                         break;
  2186     038F  3009               	movlw	9
  2187     0390  0087               	movwf	7	;volatile
  2188     0391                     l4101:
  2189                           
  2190                           ;main.c: 306:                             break;
  2191     0391  086C               	movf	_testeLuz,w
  2192     0392  046D               	iorwf	_testeLuz+1,w
  2193     0393  1D03               	btfss	3,2
  2194     0394  2B96               	goto	u6491
  2195     0395  2B97               	goto	u6490
  2196     0396                     u6491:
  2197     0396  2BB7               	goto	l4113
  2198     0397                     u6490:
  2199     0397                     l4103:
  2200     0397  0869               	movf	_testeCort+1,w
  2201     0398  3A80               	xorlw	128
  2202     0399  00FF               	movwf	btemp+1
  2203     039A  3080               	movlw	128
  2204     039B  027F               	subwf	btemp+1,w
  2205     039C  1D03               	skipz
  2206     039D  2BA0               	goto	u6505
  2207     039E  3001               	movlw	1
  2208     039F  0268               	subwf	_testeCort,w
  2209     03A0                     u6505:
  2210     03A0  1C03               	skipc
  2211     03A1  2BA3               	goto	u6501
  2212     03A2  2BA4               	goto	u6500
  2213     03A3                     u6501:
  2214     03A3  2BB7               	goto	l4113
  2215     03A4                     u6500:
  2216     03A4                     l4105:
  2217                           
  2218                           ;main.c: 307:                     }
  2219     03A4  1283               	bcf	3,5	;RP0=0, select bank0
  2220     03A5  1303               	bcf	3,6	;RP1=0, select bank0
  2221     03A6  0368               	decf	_testeCort,w
  2222     03A7  0469               	iorwf	_testeCort+1,w
  2223     03A8  1D03               	btfss	3,2
  2224     03A9  2BAB               	goto	u6511
  2225     03AA  2BAC               	goto	u6510
  2226     03AB                     u6511:
  2227     03AB  2BAE               	goto	l4109
  2228     03AC                     u6510:
  2229     03AC                     l4107:
  2230                           
  2231                           ;main.c: 308:                 }
  2232     03AC  300A               	movlw	10
  2233     03AD  0087               	movwf	7	;volatile
  2234     03AE                     l4109:
  2235                           
  2236                           ;main.c: 310:                     switch (testeCort){
  2237     03AE  3002               	movlw	2
  2238     03AF  0668               	xorwf	_testeCort,w
  2239     03B0  0469               	iorwf	_testeCort+1,w
  2240     03B1  1D03               	btfss	3,2
  2241     03B2  2BB4               	goto	u6521
  2242     03B3  2BB5               	goto	u6520
  2243     03B4                     u6521:
  2244     03B4  2BB7               	goto	l4113
  2245     03B5                     u6520:
  2246     03B5                     l4111:
  2247                           
  2248                           ;main.c: 311:                         case 1:
  2249     03B5  300C               	movlw	12
  2250     03B6  0087               	movwf	7	;volatile
  2251     03B7                     l4113:
  2252                           
  2253                           ;main.c: 316:                         break;
  2254     03B7  1F7B               	btfss	_btnAbre/(0+8),_btnAbre& (0+7)
  2255     03B8  2BBA               	goto	u6531
  2256     03B9  2BBB               	goto	u6530
  2257     03BA                     u6531:
  2258     03BA  2BBF               	goto	l196
  2259     03BB                     u6530:
  2260     03BB                     l4115:
  2261     03BB  1AFB               	btfsc	_btnFecha/(0+8),_btnFecha& (0+7)
  2262     03BC  2BBE               	goto	u6541
  2263     03BD  2BBF               	goto	u6540
  2264     03BE                     u6541:
  2265     03BE  2C37               	goto	l194
  2266     03BF                     u6540:
  2267     03BF                     l196:
  2268                           
  2269                           ;main.c: 318:                 }
  2270     03BF  1B7B               	btfsc	_btnAbre/(0+8),_btnAbre& (0+7)
  2271     03C0  2BC2               	goto	u6551
  2272     03C1  2BC3               	goto	u6550
  2273     03C2                     u6551:
  2274     03C2  2BCA               	goto	l4121
  2275     03C3                     u6550:
  2276     03C3                     l4117:
  2277                           
  2278                           ;main.c: 319:                 if(testeLuz == 0 && testeVent == 1){
  2279     03C3  3001               	movlw	1
  2280     03C4  1283               	bcf	3,5	;RP0=0, select bank0
  2281     03C5  1303               	bcf	3,6	;RP1=0, select bank0
  2282     03C6  00E8               	movwf	_testeCort
  2283     03C7  3000               	movlw	0
  2284     03C8  00E9               	movwf	_testeCort+1
  2285     03C9                     l4119:
  2286                           
  2287                           ;main.c: 320:                     switch (testeCort){
  2288     03C9  1487               	bsf	7,1	;volatile
  2289     03CA                     l4121:
  2290                           
  2291                           ;main.c: 323:                         break;
  2292     03CA  1AFB               	btfsc	_btnFecha/(0+8),_btnFecha& (0+7)
  2293     03CB  2BCD               	goto	u6561
  2294     03CC  2BCE               	goto	u6560
  2295     03CD                     u6561:
  2296     03CD  2BD5               	goto	l4127
  2297     03CE                     u6560:
  2298     03CE                     l4123:
  2299                           
  2300                           ;main.c: 324:                         case 2:
  2301     03CE  3002               	movlw	2
  2302     03CF  1283               	bcf	3,5	;RP0=0, select bank0
  2303     03D0  1303               	bcf	3,6	;RP1=0, select bank0
  2304     03D1  00E8               	movwf	_testeCort
  2305     03D2  3000               	movlw	0
  2306     03D3  00E9               	movwf	_testeCort+1
  2307     03D4                     l4125:
  2308                           
  2309                           ;main.c: 325:                             PORTC = 0b00001100;
  2310     03D4  1507               	bsf	7,2	;volatile
  2311     03D5                     l4127:
  2312                           
  2313                           ;main.c: 329:             }
  2314     03D5  1283               	bcf	3,5	;RP0=0, select bank0
  2315     03D6  1303               	bcf	3,6	;RP1=0, select bank0
  2316     03D7  036C               	decf	_testeLuz,w
  2317     03D8  046D               	iorwf	_testeLuz+1,w
  2318     03D9  1D03               	btfss	3,2
  2319     03DA  2BDC               	goto	u6571
  2320     03DB  2BDD               	goto	u6570
  2321     03DC                     u6571:
  2322     03DC  2BF7               	goto	l4141
  2323     03DD                     u6570:
  2324     03DD                     l4129:
  2325     03DD  036A               	decf	_testeVent,w
  2326     03DE  046B               	iorwf	_testeVent+1,w
  2327     03DF  1D03               	btfss	3,2
  2328     03E0  2BE2               	goto	u6581
  2329     03E1  2BE3               	goto	u6580
  2330     03E2                     u6581:
  2331     03E2  2BF7               	goto	l4141
  2332     03E3                     u6580:
  2333     03E3  2BEA               	goto	l4139
  2334     03E4                     l4133:
  2335                           
  2336                           ;main.c: 333:                 testeLuz = 0;
  2337     03E4  300B               	movlw	11
  2338     03E5  0087               	movwf	7	;volatile
  2339                           
  2340                           ;main.c: 334: 
  2341     03E6  2BF7               	goto	l4141
  2342     03E7                     l4135:
  2343                           
  2344                           ;main.c: 336:                     PORTC = 0b00001000;
  2345     03E7  300D               	movlw	13
  2346     03E8  0087               	movwf	7	;volatile
  2347                           
  2348                           ;main.c: 337:                 }
  2349     03E9  2BF7               	goto	l4141
  2350     03EA                     l4139:
  2351                           
  2352                           ; Switch on 2 bytes has been partitioned into a top level switch of size 1, and 1 sub-sw
      +                          itches
  2353                           ; Switch size 1, requested type "simple"
  2354                           ; Number of cases is 1, Range of values is 0 to 0
  2355                           ; switch strategies available:
  2356                           ; Name         Instructions Cycles
  2357                           ; simple_byte            4     3 (average)
  2358                           ; direct_byte           11     8 (fixed)
  2359                           ; jumptable            260     6 (fixed)
  2360                           ;	Chosen strategy is simple_byte
  2361     03EA  0869               	movf	_testeCort+1,w
  2362     03EB  3A00               	xorlw	0	; case 0
  2363     03EC  1903               	skipnz
  2364     03ED  2BEF               	goto	l4433
  2365     03EE  2BF7               	goto	l4141
  2366     03EF                     l4433:
  2367                           
  2368                           ; Switch size 1, requested type "simple"
  2369                           ; Number of cases is 2, Range of values is 1 to 2
  2370                           ; switch strategies available:
  2371                           ; Name         Instructions Cycles
  2372                           ; simple_byte            7     4 (average)
  2373                           ; direct_byte           17    11 (fixed)
  2374                           ; jumptable            263     9 (fixed)
  2375                           ;	Chosen strategy is simple_byte
  2376     03EF  0868               	movf	_testeCort,w
  2377     03F0  3A01               	xorlw	1	; case 1
  2378     03F1  1903               	skipnz
  2379     03F2  2BE4               	goto	l4133
  2380     03F3  3A03               	xorlw	3	; case 2
  2381     03F4  1903               	skipnz
  2382     03F5  2BE7               	goto	l4135
  2383     03F6  2BF7               	goto	l4141
  2384     03F7                     l4141:
  2385                           
  2386                           ;main.c: 340:                     if(testeCort == 1){
  2387     03F7  036C               	decf	_testeLuz,w
  2388     03F8  046D               	iorwf	_testeLuz+1,w
  2389     03F9  1D03               	btfss	3,2
  2390     03FA  2BFC               	goto	u6591
  2391     03FB  2BFD               	goto	u6590
  2392     03FC                     u6591:
  2393     03FC  2C17               	goto	l4155
  2394     03FD                     u6590:
  2395     03FD                     l4143:
  2396     03FD  086A               	movf	_testeVent,w
  2397     03FE  046B               	iorwf	_testeVent+1,w
  2398     03FF  1D03               	btfss	3,2
  2399     0400  2C02               	goto	u6601
  2400     0401  2C03               	goto	u6600
  2401     0402                     u6601:
  2402     0402  2C17               	goto	l4155
  2403     0403                     u6600:
  2404     0403  2C0A               	goto	l4153
  2405     0404                     l4147:
  2406                           
  2407                           ;main.c: 343:                     if(testeCort == 2){
  2408     0404  3003               	movlw	3
  2409     0405  0087               	movwf	7	;volatile
  2410                           
  2411                           ;main.c: 344:                         PORTC = 0b00001100;
  2412     0406  2C17               	goto	l4155
  2413     0407                     l4149:
  2414                           
  2415                           ;main.c: 346:                 }
  2416     0407  3005               	movlw	5
  2417     0408  0087               	movwf	7	;volatile
  2418                           
  2419                           ;main.c: 347: 
  2420     0409  2C17               	goto	l4155
  2421     040A                     l4153:
  2422                           
  2423                           ; Switch on 2 bytes has been partitioned into a top level switch of size 1, and 1 sub-sw
      +                          itches
  2424                           ; Switch size 1, requested type "simple"
  2425                           ; Number of cases is 1, Range of values is 0 to 0
  2426                           ; switch strategies available:
  2427                           ; Name         Instructions Cycles
  2428                           ; simple_byte            4     3 (average)
  2429                           ; direct_byte           11     8 (fixed)
  2430                           ; jumptable            260     6 (fixed)
  2431                           ;	Chosen strategy is simple_byte
  2432     040A  0869               	movf	_testeCort+1,w
  2433     040B  3A00               	xorlw	0	; case 0
  2434     040C  1903               	skipnz
  2435     040D  2C0F               	goto	l4435
  2436     040E  2C17               	goto	l4155
  2437     040F                     l4435:
  2438                           
  2439                           ; Switch size 1, requested type "simple"
  2440                           ; Number of cases is 2, Range of values is 1 to 2
  2441                           ; switch strategies available:
  2442                           ; Name         Instructions Cycles
  2443                           ; simple_byte            7     4 (average)
  2444                           ; direct_byte           17    11 (fixed)
  2445                           ; jumptable            263     9 (fixed)
  2446                           ;	Chosen strategy is simple_byte
  2447     040F  0868               	movf	_testeCort,w
  2448     0410  3A01               	xorlw	1	; case 1
  2449     0411  1903               	skipnz
  2450     0412  2C04               	goto	l4147
  2451     0413  3A03               	xorlw	3	; case 2
  2452     0414  1903               	skipnz
  2453     0415  2C07               	goto	l4149
  2454     0416  2C17               	goto	l4155
  2455     0417                     l4155:
  2456                           
  2457                           ;main.c: 350:                         PORTC = 0b00000010;
  2458     0417  086C               	movf	_testeLuz,w
  2459     0418  046D               	iorwf	_testeLuz+1,w
  2460     0419  1D03               	btfss	3,2
  2461     041A  2C1C               	goto	u6611
  2462     041B  2C1D               	goto	u6610
  2463     041C                     u6611:
  2464     041C  2C37               	goto	l194
  2465     041D                     u6610:
  2466     041D                     l4157:
  2467     041D  036A               	decf	_testeVent,w
  2468     041E  046B               	iorwf	_testeVent+1,w
  2469     041F  1D03               	btfss	3,2
  2470     0420  2C22               	goto	u6621
  2471     0421  2C23               	goto	u6620
  2472     0422                     u6621:
  2473     0422  2C37               	goto	l194
  2474     0423                     u6620:
  2475     0423  2C2A               	goto	l4167
  2476     0424                     l4161:
  2477                           
  2478                           ;main.c: 353:                         PORTC = 0b00000100;
  2479     0424  300A               	movlw	10
  2480     0425  0087               	movwf	7	;volatile
  2481                           
  2482                           ;main.c: 354:                     }
  2483     0426  2C37               	goto	l194
  2484     0427                     l4163:
  2485                           
  2486                           ;main.c: 356:             }
  2487     0427  300C               	movlw	12
  2488     0428  0087               	movwf	7	;volatile
  2489                           
  2490                           ;main.c: 357: 
  2491     0429  2C37               	goto	l194
  2492     042A                     l4167:
  2493                           
  2494                           ; Switch on 2 bytes has been partitioned into a top level switch of size 1, and 1 sub-sw
      +                          itches
  2495                           ; Switch size 1, requested type "simple"
  2496                           ; Number of cases is 1, Range of values is 0 to 0
  2497                           ; switch strategies available:
  2498                           ; Name         Instructions Cycles
  2499                           ; simple_byte            4     3 (average)
  2500                           ; direct_byte           11     8 (fixed)
  2501                           ; jumptable            260     6 (fixed)
  2502                           ;	Chosen strategy is simple_byte
  2503     042A  0869               	movf	_testeCort+1,w
  2504     042B  3A00               	xorlw	0	; case 0
  2505     042C  1903               	skipnz
  2506     042D  2C2F               	goto	l4437
  2507     042E  2C37               	goto	l194
  2508     042F                     l4437:
  2509                           
  2510                           ; Switch size 1, requested type "simple"
  2511                           ; Number of cases is 2, Range of values is 1 to 2
  2512                           ; switch strategies available:
  2513                           ; Name         Instructions Cycles
  2514                           ; simple_byte            7     4 (average)
  2515                           ; direct_byte           17    11 (fixed)
  2516                           ; jumptable            263     9 (fixed)
  2517                           ;	Chosen strategy is simple_byte
  2518     042F  0868               	movf	_testeCort,w
  2519     0430  3A01               	xorlw	1	; case 1
  2520     0431  1903               	skipnz
  2521     0432  2C24               	goto	l4161
  2522     0433  3A03               	xorlw	3	; case 2
  2523     0434  1903               	skipnz
  2524     0435  2C27               	goto	l4163
  2525     0436  2C37               	goto	l194
  2526     0437                     l194:	
  2527                           ;main.c: 360:                 testeCort = 0;
  2528                           
  2529                           
  2530                           ;main.c: 361: 
  2531     0437  1FFB               	btfss	_btnLuz/(0+8),_btnLuz& (0+7)
  2532     0438  2C3A               	goto	u6631
  2533     0439  2C3B               	goto	u6630
  2534     043A                     u6631:
  2535     043A  2CA2               	goto	l4205
  2536     043B                     u6630:
  2537     043B                     l4169:
  2538     043B  1283               	bcf	3,5	;RP0=0, select bank0
  2539     043C  1303               	bcf	3,6	;RP1=0, select bank0
  2540     043D  036C               	decf	_testeLuz,w
  2541     043E  046D               	iorwf	_testeLuz+1,w
  2542     043F  1D03               	btfss	3,2
  2543     0440  2C42               	goto	u6641
  2544     0441  2C43               	goto	u6640
  2545     0442                     u6641:
  2546     0442  2CA2               	goto	l4205
  2547     0443                     u6640:
  2548     0443                     l4171:
  2549                           
  2550                           ;main.c: 363:                     PORTC = 0b00001001;
  2551     0443  1007               	bcf	7,0	;volatile
  2552     0444                     l4173:
  2553                           
  2554                           ;main.c: 364:                 }
  2555     0444  01EC               	clrf	_testeLuz
  2556     0445  01ED               	clrf	_testeLuz+1
  2557     0446                     l4175:
  2558                           
  2559                           ;main.c: 366:                     PORTC = 0b00001000;
  2560     0446  036A               	decf	_testeVent,w
  2561     0447  046B               	iorwf	_testeVent+1,w
  2562     0448  1D03               	btfss	3,2
  2563     0449  2C4B               	goto	u6651
  2564     044A  2C4C               	goto	u6650
  2565     044B                     u6651:
  2566     044B  2C54               	goto	l4181
  2567     044C                     u6650:
  2568     044C                     l4177:
  2569     044C  0868               	movf	_testeCort,w
  2570     044D  0469               	iorwf	_testeCort+1,w
  2571     044E  1D03               	btfss	3,2
  2572     044F  2C51               	goto	u6661
  2573     0450  2C52               	goto	u6660
  2574     0451                     u6661:
  2575     0451  2C54               	goto	l4181
  2576     0452                     u6660:
  2577     0452                     l4179:
  2578                           
  2579                           ;main.c: 367:                 }
  2580     0452  3008               	movlw	8
  2581     0453  0087               	movwf	7	;volatile
  2582     0454                     l4181:
  2583                           
  2584                           ;main.c: 370:                 }
  2585     0454  036A               	decf	_testeVent,w
  2586     0455  046B               	iorwf	_testeVent+1,w
  2587     0456  1D03               	btfss	3,2
  2588     0457  2C59               	goto	u6671
  2589     0458  2C5A               	goto	u6670
  2590     0459                     u6671:
  2591     0459  2C7A               	goto	l4193
  2592     045A                     u6670:
  2593     045A                     l4183:
  2594     045A  0869               	movf	_testeCort+1,w
  2595     045B  3A80               	xorlw	128
  2596     045C  00FF               	movwf	btemp+1
  2597     045D  3080               	movlw	128
  2598     045E  027F               	subwf	btemp+1,w
  2599     045F  1D03               	skipz
  2600     0460  2C63               	goto	u6685
  2601     0461  3001               	movlw	1
  2602     0462  0268               	subwf	_testeCort,w
  2603     0463                     u6685:
  2604     0463  1C03               	skipc
  2605     0464  2C66               	goto	u6681
  2606     0465  2C67               	goto	u6680
  2607     0466                     u6681:
  2608     0466  2C7A               	goto	l4193
  2609     0467                     u6680:
  2610     0467                     l4185:
  2611                           
  2612                           ;main.c: 371:             }
  2613     0467  1283               	bcf	3,5	;RP0=0, select bank0
  2614     0468  1303               	bcf	3,6	;RP1=0, select bank0
  2615     0469  0368               	decf	_testeCort,w
  2616     046A  0469               	iorwf	_testeCort+1,w
  2617     046B  1D03               	btfss	3,2
  2618     046C  2C6E               	goto	u6691
  2619     046D  2C6F               	goto	u6690
  2620     046E                     u6691:
  2621     046E  2C71               	goto	l4189
  2622     046F                     u6690:
  2623     046F                     l4187:
  2624                           
  2625                           ;main.c: 372:             if(sensorFecha == 0 && testeCort == 2){
  2626     046F  300A               	movlw	10
  2627     0470  0087               	movwf	7	;volatile
  2628     0471                     l4189:
  2629                           
  2630                           ;main.c: 374:                 testeCort = 0;
  2631     0471  3002               	movlw	2
  2632     0472  0668               	xorwf	_testeCort,w
  2633     0473  0469               	iorwf	_testeCort+1,w
  2634     0474  1D03               	btfss	3,2
  2635     0475  2C77               	goto	u6701
  2636     0476  2C78               	goto	u6700
  2637     0477                     u6701:
  2638     0477  2C7A               	goto	l4193
  2639     0478                     u6700:
  2640     0478                     l4191:
  2641                           
  2642                           ;main.c: 375: 
  2643     0478  300C               	movlw	12
  2644     0479  0087               	movwf	7	;volatile
  2645     047A                     l4193:
  2646                           
  2647                           ;main.c: 379:                 if(testeLuz == 0 && testeVent == 1){
  2648     047A  1283               	bcf	3,5	;RP0=0, select bank0
  2649     047B  1303               	bcf	3,6	;RP1=0, select bank0
  2650     047C  0869               	movf	_testeCort+1,w
  2651     047D  3A80               	xorlw	128
  2652     047E  00FF               	movwf	btemp+1
  2653     047F  3080               	movlw	128
  2654     0480  027F               	subwf	btemp+1,w
  2655     0481  1D03               	skipz
  2656     0482  2C85               	goto	u6715
  2657     0483  3001               	movlw	1
  2658     0484  0268               	subwf	_testeCort,w
  2659     0485                     u6715:
  2660     0485  1C03               	skipc
  2661     0486  2C88               	goto	u6711
  2662     0487  2C89               	goto	u6710
  2663     0488                     u6711:
  2664     0488  2CA2               	goto	l4205
  2665     0489                     u6710:
  2666     0489                     l4195:
  2667     0489  1283               	bcf	3,5	;RP0=0, select bank0
  2668     048A  1303               	bcf	3,6	;RP1=0, select bank0
  2669     048B  086A               	movf	_testeVent,w
  2670     048C  046B               	iorwf	_testeVent+1,w
  2671     048D  1D03               	btfss	3,2
  2672     048E  2C90               	goto	u6721
  2673     048F  2C91               	goto	u6720
  2674     0490                     u6721:
  2675     0490  2CA2               	goto	l4205
  2676     0491                     u6720:
  2677     0491                     l4197:
  2678                           
  2679                           ;main.c: 380:                     PORTC = 0b00001000;
  2680     0491  0368               	decf	_testeCort,w
  2681     0492  0469               	iorwf	_testeCort+1,w
  2682     0493  1D03               	btfss	3,2
  2683     0494  2C96               	goto	u6731
  2684     0495  2C97               	goto	u6730
  2685     0496                     u6731:
  2686     0496  2C99               	goto	l4201
  2687     0497                     u6730:
  2688     0497                     l4199:
  2689                           
  2690                           ;main.c: 381:                 }
  2691     0497  3002               	movlw	2
  2692     0498  0087               	movwf	7	;volatile
  2693     0499                     l4201:
  2694                           
  2695                           ;main.c: 383:                     PORTC = 0b00000001;
  2696     0499  3002               	movlw	2
  2697     049A  0668               	xorwf	_testeCort,w
  2698     049B  0469               	iorwf	_testeCort+1,w
  2699     049C  1D03               	btfss	3,2
  2700     049D  2C9F               	goto	u6741
  2701     049E  2CA0               	goto	u6740
  2702     049F                     u6741:
  2703     049F  2CA2               	goto	l4205
  2704     04A0                     u6740:
  2705     04A0                     l4203:
  2706                           
  2707                           ;main.c: 384:                 }
  2708     04A0  3004               	movlw	4
  2709     04A1  0087               	movwf	7	;volatile
  2710     04A2                     l4205:
  2711                           
  2712                           ;main.c: 389:                 testeVent = 0;
  2713     04A2  19FB               	btfsc	_sensorAbre/(0+8),_sensorAbre& (0+7)
  2714     04A3  2CA5               	goto	u6751
  2715     04A4  2CA6               	goto	u6750
  2716     04A5                     u6751:
  2717     04A5  2CDB               	goto	l4231
  2718     04A6                     u6750:
  2719     04A6                     l4207:
  2720     04A6  1283               	bcf	3,5	;RP0=0, select bank0
  2721     04A7  1303               	bcf	3,6	;RP1=0, select bank0
  2722     04A8  0368               	decf	_testeCort,w
  2723     04A9  0469               	iorwf	_testeCort+1,w
  2724     04AA  1D03               	btfss	3,2
  2725     04AB  2CAD               	goto	u6761
  2726     04AC  2CAE               	goto	u6760
  2727     04AD                     u6761:
  2728     04AD  2CDB               	goto	l4231
  2729     04AE                     u6760:
  2730     04AE                     l4209:
  2731                           
  2732                           ;main.c: 390: 
  2733     04AE  1107               	bcf	7,2	;volatile
  2734     04AF                     l4211:
  2735                           
  2736                           ;main.c: 391:                 if(testeLuz == 1 && testeCort >=1){
  2737     04AF  01E8               	clrf	_testeCort
  2738     04B0  01E9               	clrf	_testeCort+1
  2739     04B1                     l4213:
  2740                           
  2741                           ;main.c: 393:                     if(testeCort == 1){
  2742     04B1  036C               	decf	_testeLuz,w
  2743     04B2  046D               	iorwf	_testeLuz+1,w
  2744     04B3  1D03               	btfss	3,2
  2745     04B4  2CB6               	goto	u6771
  2746     04B5  2CB7               	goto	u6770
  2747     04B6                     u6771:
  2748     04B6  2CBF               	goto	l4219
  2749     04B7                     u6770:
  2750     04B7                     l4215:
  2751     04B7  036A               	decf	_testeVent,w
  2752     04B8  046B               	iorwf	_testeVent+1,w
  2753     04B9  1D03               	btfss	3,2
  2754     04BA  2CBC               	goto	u6781
  2755     04BB  2CBD               	goto	u6780
  2756     04BC                     u6781:
  2757     04BC  2CBF               	goto	l4219
  2758     04BD                     u6780:
  2759     04BD                     l4217:
  2760                           
  2761                           ;main.c: 394:                         PORTC = 0b00000011;
  2762     04BD  3009               	movlw	9
  2763     04BE  0087               	movwf	7	;volatile
  2764     04BF                     l4219:
  2765                           
  2766                           ;main.c: 396:                     if(testeCort == 2){
  2767     04BF  086C               	movf	_testeLuz,w
  2768     04C0  046D               	iorwf	_testeLuz+1,w
  2769     04C1  1D03               	btfss	3,2
  2770     04C2  2CC4               	goto	u6791
  2771     04C3  2CC5               	goto	u6790
  2772     04C4                     u6791:
  2773     04C4  2CCD               	goto	l4225
  2774     04C5                     u6790:
  2775     04C5                     l4221:
  2776     04C5  036A               	decf	_testeVent,w
  2777     04C6  046B               	iorwf	_testeVent+1,w
  2778     04C7  1D03               	btfss	3,2
  2779     04C8  2CCA               	goto	u6801
  2780     04C9  2CCB               	goto	u6800
  2781     04CA                     u6801:
  2782     04CA  2CCD               	goto	l4225
  2783     04CB                     u6800:
  2784     04CB                     l4223:
  2785                           
  2786                           ;main.c: 397:                         PORTC = 0b00000101;
  2787     04CB  3008               	movlw	8
  2788     04CC  0087               	movwf	7	;volatile
  2789     04CD                     l4225:
  2790                           
  2791                           ;main.c: 399: 
  2792     04CD  036C               	decf	_testeLuz,w
  2793     04CE  046D               	iorwf	_testeLuz+1,w
  2794     04CF  1D03               	btfss	3,2
  2795     04D0  2CD2               	goto	u6811
  2796     04D1  2CD3               	goto	u6810
  2797     04D2                     u6811:
  2798     04D2  2CDB               	goto	l4231
  2799     04D3                     u6810:
  2800     04D3                     l4227:
  2801     04D3  086A               	movf	_testeVent,w
  2802     04D4  046B               	iorwf	_testeVent+1,w
  2803     04D5  1D03               	btfss	3,2
  2804     04D6  2CD8               	goto	u6821
  2805     04D7  2CD9               	goto	u6820
  2806     04D8                     u6821:
  2807     04D8  2CDB               	goto	l4231
  2808     04D9                     u6820:
  2809     04D9                     l4229:
  2810                           
  2811                           ;main.c: 400:                 }
  2812     04D9  3001               	movlw	1
  2813     04DA  0087               	movwf	7	;volatile
  2814     04DB                     l4231:
  2815                           
  2816                           ;main.c: 403:                     PORTC = 0b00000001;
  2817     04DB  197B               	btfsc	_sensorFecha/(0+8),_sensorFecha& (0+7)
  2818     04DC  2CDE               	goto	u6831
  2819     04DD  2CDF               	goto	u6830
  2820     04DE                     u6831:
  2821     04DE  2D15               	goto	l4257
  2822     04DF                     u6830:
  2823     04DF                     l4233:
  2824     04DF  3002               	movlw	2
  2825     04E0  1283               	bcf	3,5	;RP0=0, select bank0
  2826     04E1  1303               	bcf	3,6	;RP1=0, select bank0
  2827     04E2  0668               	xorwf	_testeCort,w
  2828     04E3  0469               	iorwf	_testeCort+1,w
  2829     04E4  1D03               	btfss	3,2
  2830     04E5  2CE7               	goto	u6841
  2831     04E6  2CE8               	goto	u6840
  2832     04E7                     u6841:
  2833     04E7  2D15               	goto	l4257
  2834     04E8                     u6840:
  2835     04E8                     l4235:
  2836                           
  2837                           ;main.c: 404:                 }
  2838     04E8  1187               	bcf	7,3	;volatile
  2839     04E9                     l4237:
  2840                           
  2841                           ;main.c: 405: 
  2842     04E9  01E8               	clrf	_testeCort
  2843     04EA  01E9               	clrf	_testeCort+1
  2844     04EB                     l4239:
  2845                           
  2846                           ;main.c: 407:                     if(testeCort == 1){
  2847     04EB  036C               	decf	_testeLuz,w
  2848     04EC  046D               	iorwf	_testeLuz+1,w
  2849     04ED  1D03               	btfss	3,2
  2850     04EE  2CF0               	goto	u6851
  2851     04EF  2CF1               	goto	u6850
  2852     04F0                     u6851:
  2853     04F0  2CF9               	goto	l4245
  2854     04F1                     u6850:
  2855     04F1                     l4241:
  2856     04F1  036A               	decf	_testeVent,w
  2857     04F2  046B               	iorwf	_testeVent+1,w
  2858     04F3  1D03               	btfss	3,2
  2859     04F4  2CF6               	goto	u6861
  2860     04F5  2CF7               	goto	u6860
  2861     04F6                     u6861:
  2862     04F6  2CF9               	goto	l4245
  2863     04F7                     u6860:
  2864     04F7                     l4243:
  2865                           
  2866                           ;main.c: 408:                         PORTC = 0b00000010;
  2867     04F7  3009               	movlw	9
  2868     04F8  0087               	movwf	7	;volatile
  2869     04F9                     l4245:
  2870                           
  2871                           ;main.c: 410:                     if(testeCort == 2){
  2872     04F9  086C               	movf	_testeLuz,w
  2873     04FA  046D               	iorwf	_testeLuz+1,w
  2874     04FB  1D03               	btfss	3,2
  2875     04FC  2CFE               	goto	u6871
  2876     04FD  2CFF               	goto	u6870
  2877     04FE                     u6871:
  2878     04FE  2D07               	goto	l4251
  2879     04FF                     u6870:
  2880     04FF                     l4247:
  2881     04FF  036A               	decf	_testeVent,w
  2882     0500  046B               	iorwf	_testeVent+1,w
  2883     0501  1D03               	btfss	3,2
  2884     0502  2D04               	goto	u6881
  2885     0503  2D05               	goto	u6880
  2886     0504                     u6881:
  2887     0504  2D07               	goto	l4251
  2888     0505                     u6880:
  2889     0505                     l4249:
  2890                           
  2891                           ;main.c: 411:                         PORTC = 0b00000100;
  2892     0505  3008               	movlw	8
  2893     0506  0087               	movwf	7	;volatile
  2894     0507                     l4251:
  2895                           
  2896                           ;main.c: 413:                 }
  2897     0507  036C               	decf	_testeLuz,w
  2898     0508  046D               	iorwf	_testeLuz+1,w
  2899     0509  1D03               	btfss	3,2
  2900     050A  2D0C               	goto	u6891
  2901     050B  2D0D               	goto	u6890
  2902     050C                     u6891:
  2903     050C  2D15               	goto	l4257
  2904     050D                     u6890:
  2905     050D                     l4253:
  2906     050D  086A               	movf	_testeVent,w
  2907     050E  046B               	iorwf	_testeVent+1,w
  2908     050F  1D03               	btfss	3,2
  2909     0510  2D12               	goto	u6901
  2910     0511  2D13               	goto	u6900
  2911     0512                     u6901:
  2912     0512  2D15               	goto	l4257
  2913     0513                     u6900:
  2914     0513                     l4255:
  2915                           
  2916                           ;main.c: 414:             }
  2917     0513  3001               	movlw	1
  2918     0514  0087               	movwf	7	;volatile
  2919     0515                     l4257:
  2920                           
  2921                           ;main.c: 417: }
  2922     0515  1E7B               	btfss	_btnVent/(0+8),_btnVent& (0+7)
  2923     0516  2D18               	goto	u6911
  2924     0517  2D19               	goto	u6910
  2925     0518                     u6911:
  2926     0518  2871               	goto	l3855
  2927     0519                     u6910:
  2928     0519                     l4259:
  2929     0519  1283               	bcf	3,5	;RP0=0, select bank0
  2930     051A  1303               	bcf	3,6	;RP1=0, select bank0
  2931     051B  036A               	decf	_testeVent,w
  2932     051C  046B               	iorwf	_testeVent+1,w
  2933     051D  1D03               	btfss	3,2
  2934     051E  2D20               	goto	u6921
  2935     051F  2D21               	goto	u6920
  2936     0520                     u6921:
  2937     0520  2871               	goto	l3855
  2938     0521                     u6920:
  2939     0521                     l4261:
  2940                           
  2941                           ;main.c: 419: 
  2942     0521  1187               	bcf	7,3	;volatile
  2943     0522                     l4263:
  2944                           
  2945                           ;main.c: 420: 
  2946     0522  01EA               	clrf	_testeVent
  2947     0523  01EB               	clrf	_testeVent+1
  2948     0524                     l4265:
  2949                           
  2950                           ;main.c: 422: 
  2951     0524  036C               	decf	_testeLuz,w
  2952     0525  046D               	iorwf	_testeLuz+1,w
  2953     0526  1D03               	btfss	3,2
  2954     0527  2D29               	goto	u6931
  2955     0528  2D2A               	goto	u6930
  2956     0529                     u6931:
  2957     0529  2D4A               	goto	l4277
  2958     052A                     u6930:
  2959     052A                     l4267:
  2960     052A  0869               	movf	_testeCort+1,w
  2961     052B  3A80               	xorlw	128
  2962     052C  00FF               	movwf	btemp+1
  2963     052D  3080               	movlw	128
  2964     052E  027F               	subwf	btemp+1,w
  2965     052F  1D03               	skipz
  2966     0530  2D33               	goto	u6945
  2967     0531  3001               	movlw	1
  2968     0532  0268               	subwf	_testeCort,w
  2969     0533                     u6945:
  2970     0533  1C03               	skipc
  2971     0534  2D36               	goto	u6941
  2972     0535  2D37               	goto	u6940
  2973     0536                     u6941:
  2974     0536  2D4A               	goto	l4277
  2975     0537                     u6940:
  2976     0537                     l4269:
  2977                           
  2978                           ;main.c: 424: 
  2979     0537  1283               	bcf	3,5	;RP0=0, select bank0
  2980     0538  1303               	bcf	3,6	;RP1=0, select bank0
  2981     0539  0368               	decf	_testeCort,w
  2982     053A  0469               	iorwf	_testeCort+1,w
  2983     053B  1D03               	btfss	3,2
  2984     053C  2D3E               	goto	u6951
  2985     053D  2D3F               	goto	u6950
  2986     053E                     u6951:
  2987     053E  2D41               	goto	l4273
  2988     053F                     u6950:
  2989     053F                     l4271:
  2990                           
  2991                           ;main.c: 425: 
  2992     053F  3003               	movlw	3
  2993     0540  0087               	movwf	7	;volatile
  2994     0541                     l4273:
  2995                           
  2996                           ;main.c: 427:            TMR1L = 0xDC;
  2997     0541  3002               	movlw	2
  2998     0542  0668               	xorwf	_testeCort,w
  2999     0543  0469               	iorwf	_testeCort+1,w
  3000     0544  1D03               	btfss	3,2
  3001     0545  2D47               	goto	u6961
  3002     0546  2D48               	goto	u6960
  3003     0547                     u6961:
  3004     0547  2D4A               	goto	l4277
  3005     0548                     u6960:
  3006     0548                     l4275:
  3007                           
  3008                           ;main.c: 428:            TMR1H = 0x0B;
  3009     0548  3005               	movlw	5
  3010     0549  0087               	movwf	7	;volatile
  3011     054A                     l4277:
  3012                           
  3013                           ;main.c: 433:                meioTempo++;
  3014     054A  1283               	bcf	3,5	;RP0=0, select bank0
  3015     054B  1303               	bcf	3,6	;RP1=0, select bank0
  3016     054C  036C               	decf	_testeLuz,w
  3017     054D  046D               	iorwf	_testeLuz+1,w
  3018     054E  1D03               	btfss	3,2
  3019     054F  2D51               	goto	u6971
  3020     0550  2D52               	goto	u6970
  3021     0551                     u6971:
  3022     0551  2D5A               	goto	l4283
  3023     0552                     u6970:
  3024     0552                     l4279:
  3025     0552  0868               	movf	_testeCort,w
  3026     0553  0469               	iorwf	_testeCort+1,w
  3027     0554  1D03               	btfss	3,2
  3028     0555  2D57               	goto	u6981
  3029     0556  2D58               	goto	u6980
  3030     0557                     u6981:
  3031     0557  2D5A               	goto	l4283
  3032     0558                     u6980:
  3033     0558                     l4281:
  3034                           
  3035                           ;main.c: 434: 
  3036     0558  3001               	movlw	1
  3037     0559  0087               	movwf	7	;volatile
  3038     055A                     l4283:
  3039                           
  3040                           ;main.c: 437:                sec++;
  3041     055A  086C               	movf	_testeLuz,w
  3042     055B  046D               	iorwf	_testeLuz+1,w
  3043     055C  1D03               	btfss	3,2
  3044     055D  2D5F               	goto	u6991
  3045     055E  2D60               	goto	u6990
  3046     055F                     u6991:
  3047     055F  2871               	goto	l3855
  3048     0560                     u6990:
  3049     0560                     l4285:
  3050     0560  0869               	movf	_testeCort+1,w
  3051     0561  3A80               	xorlw	128
  3052     0562  00FF               	movwf	btemp+1
  3053     0563  3080               	movlw	128
  3054     0564  027F               	subwf	btemp+1,w
  3055     0565  1D03               	skipz
  3056     0566  2D69               	goto	u7005
  3057     0567  3001               	movlw	1
  3058     0568  0268               	subwf	_testeCort,w
  3059     0569                     u7005:
  3060     0569  1C03               	skipc
  3061     056A  2D6C               	goto	u7001
  3062     056B  2D6D               	goto	u7000
  3063     056C                     u7001:
  3064     056C  2871               	goto	l3855
  3065     056D                     u7000:
  3066     056D                     l4287:
  3067                           
  3068                           ;main.c: 438:                meioTempo--;
  3069     056D  1283               	bcf	3,5	;RP0=0, select bank0
  3070     056E  1303               	bcf	3,6	;RP1=0, select bank0
  3071     056F  0368               	decf	_testeCort,w
  3072     0570  0469               	iorwf	_testeCort+1,w
  3073     0571  1D03               	btfss	3,2
  3074     0572  2D74               	goto	u7011
  3075     0573  2D75               	goto	u7010
  3076     0574                     u7011:
  3077     0574  2D77               	goto	l4291
  3078     0575                     u7010:
  3079     0575                     l4289:
  3080                           
  3081                           ;main.c: 439:            }
  3082     0575  3002               	movlw	2
  3083     0576  0087               	movwf	7	;volatile
  3084     0577                     l4291:
  3085                           
  3086                           ;main.c: 441: 
  3087     0577  3002               	movlw	2
  3088     0578  0668               	xorwf	_testeCort,w
  3089     0579  0469               	iorwf	_testeCort+1,w
  3090     057A  1D03               	btfss	3,2
  3091     057B  2D7D               	goto	u7021
  3092     057C  2D7E               	goto	u7020
  3093     057D                     u7021:
  3094     057D  2D81               	goto	l177
  3095     057E                     u7020:
  3096     057E                     l4293:
  3097                           
  3098                           ;main.c: 442:         if (INTF){
  3099     057E  3004               	movlw	4
  3100     057F  0087               	movwf	7	;volatile
  3101     0580  2871               	goto	l3855
  3102     0581                     l177:	
  3103                           ;main.c: 446:             if(deuPau == 0){
  3104                           
  3105     0581  2871               	goto	l3855
  3106     0582  120A  118A  280C   	ljmp	start
  3107     0585                     __end_of_main:
  3108                           
  3109                           	psect	text1
  3110     0585                     __ptext1:	
  3111 ;; *************** function _sprintf *****************
  3112 ;; Defined at:
  3113 ;;		line 505 in file "D:\Arquivos Programas\Microchip\pic\sources\c90\common\doprnt.c"
  3114 ;; Parameters:    Size  Location     Type
  3115 ;;  sp              1    wreg     PTR unsigned char 
  3116 ;;		 -> buffer(20), 
  3117 ;;  f               1    5[BANK0 ] PTR const unsigned char 
  3118 ;;		 -> STR_2(22), 
  3119 ;; Auto vars:     Size  Location     Type
  3120 ;;  sp              1   19[BANK0 ] PTR unsigned char 
  3121 ;;		 -> buffer(20), 
  3122 ;;  tmpval          4    0        struct .
  3123 ;;  width           2   20[BANK0 ] int 
  3124 ;;  val             2   17[BANK0 ] unsigned int 
  3125 ;;  cp              2    0        PTR const unsigned char 
  3126 ;;  len             2    0        unsigned int 
  3127 ;;  c               1   23[BANK0 ] unsigned char 
  3128 ;;  prec            1   22[BANK0 ] char 
  3129 ;;  flag            1   16[BANK0 ] unsigned char 
  3130 ;;  ap              1   15[BANK0 ] PTR void [1]
  3131 ;;		 -> ?_sprintf(2), 
  3132 ;; Return value:  Size  Location     Type
  3133 ;;                  2    5[BANK0 ] int 
  3134 ;; Registers used:
  3135 ;;		wreg, fsr0l, fsr0h, status,2, status,0, btemp+1, pclath, cstack
  3136 ;; Tracked objects:
  3137 ;;		On entry : 0/0
  3138 ;;		On exit  : 0/0
  3139 ;;		Unchanged: 0/0
  3140 ;; Data sizes:     COMMON   BANK0   BANK1   BANK3   BANK2
  3141 ;;      Params:         0       7       0       0       0
  3142 ;;      Locals:         0       9       0       0       0
  3143 ;;      Temps:          0       3       0       0       0
  3144 ;;      Totals:         0      19       0       0       0
  3145 ;;Total ram usage:       19 bytes
  3146 ;; Hardware stack levels used: 1
  3147 ;; Hardware stack levels required when called: 2
  3148 ;; This function calls:
  3149 ;;		___bmul
  3150 ;;		___lwdiv
  3151 ;;		___lwmod
  3152 ;;		___wmul
  3153 ;;		_isdigit
  3154 ;; This function is called by:
  3155 ;;		_main
  3156 ;; This function uses a non-reentrant model
  3157 ;;
  3158                           
  3159     0585                     _sprintf:	
  3160                           ;psect for function _sprintf
  3161                           
  3162                           
  3163                           ;incstack = 0
  3164                           ; Regs used in _sprintf: [wreg-fsr0h+status,2+status,0+btemp+1+pclath+cstack]
  3165                           ;sprintf@sp stored from wreg
  3166     0585  1283               	bcf	3,5	;RP0=0, select bank0
  3167     0586  1303               	bcf	3,6	;RP1=0, select bank0
  3168     0587  00B3               	movwf	sprintf@sp
  3169     0588                     l3671:
  3170                           
  3171                           ;D:\Arquivos Programas\Microchip\pic\sources\c90\common\doprnt.c: 505: sprintf(char * sp
      +                          , const char * f, ...);D:\Arquivos Programas\Microchip\pic\sources\c90\common\doprnt.c: 
      +                          506: {;D:\Arquivos Programas\Microchip\pic\sources\c90\common\doprnt.c: 507:  va_list ap
      +                          ;;D:\Arquivos Programas\Microchip\pic\sources\c90\common\doprnt.c: 512:  char c;;D:\Arqu
      +                          ivos Programas\Microchip\pic\sources\c90\common\doprnt.c: 514:  int width;;D:\Arquivos P
      +                          rogramas\Microchip\pic\sources\c90\common\doprnt.c: 521:  signed char prec;
  3172     0588  3026               	movlw	(low ((?_sprintf| 0+1)))& (0+255)
  3173     0589  00AF               	movwf	sprintf@ap
  3174                           
  3175                           ;D:\Arquivos Programas\Microchip\pic\sources\c90\common\doprnt.c: 553:  while((c = *f++)
      +                          ) {
  3176     058A  2F63               	goto	l3787
  3177     058B                     l3673:
  3178                           
  3179                           ;D:\Arquivos Programas\Microchip\pic\sources\c90\common\doprnt.c: 555:   if(c != '%')
  3180     058B  3025               	movlw	37
  3181     058C  0637               	xorwf	sprintf@c,w
  3182     058D  1903               	btfsc	3,2
  3183     058E  2D90               	goto	u5611
  3184     058F  2D91               	goto	u5610
  3185     0590                     u5611:
  3186     0590  2D9B               	goto	l3679
  3187     0591                     u5610:
  3188     0591                     l3675:
  3189                           
  3190                           ;D:\Arquivos Programas\Microchip\pic\sources\c90\common\doprnt.c: 557:   {;D:\Arquivos P
      +                          rogramas\Microchip\pic\sources\c90\common\doprnt.c: 558:    ((*sp++ = (c)));
  3191     0591  0833               	movf	sprintf@sp,w
  3192     0592  0084               	movwf	4
  3193     0593  0837               	movf	sprintf@c,w
  3194     0594  1383               	bcf	3,7	;select IRP bank0
  3195     0595  0080               	movwf	0
  3196     0596                     l3677:
  3197     0596  3001               	movlw	1
  3198     0597  00AC               	movwf	??_sprintf
  3199     0598  082C               	movf	??_sprintf,w
  3200     0599  07B3               	addwf	sprintf@sp,f
  3201                           
  3202                           ;D:\Arquivos Programas\Microchip\pic\sources\c90\common\doprnt.c: 559:    continue;
  3203     059A  2F63               	goto	l3787
  3204     059B                     l3679:
  3205                           
  3206                           ;D:\Arquivos Programas\Microchip\pic\sources\c90\common\doprnt.c: 563:   width = 0;
  3207     059B  01B4               	clrf	sprintf@width
  3208     059C  01B5               	clrf	sprintf@width+1
  3209                           
  3210                           ;D:\Arquivos Programas\Microchip\pic\sources\c90\common\doprnt.c: 565:   flag = 0;
  3211     059D  01B0               	clrf	sprintf@flag
  3212     059E                     l3681:
  3213                           
  3214                           ;D:\Arquivos Programas\Microchip\pic\sources\c90\common\doprnt.c: 614:   if(isdigit((uns
      +                          igned)*f)) {
  3215     059E  0825               	movf	sprintf@f,w
  3216     059F  0084               	movwf	4
  3217     05A0  160A  118A  200A  120A  118A  	fcall	stringdir
  3218     05A5  160A  118A  2767  120A  118A  	fcall	_isdigit
  3219     05AA  1C03               	btfss	3,0
  3220     05AB  2DAD               	goto	u5621
  3221     05AC  2DAE               	goto	u5620
  3222     05AD                     u5621:
  3223     05AD  2DEE               	goto	l3693
  3224     05AE                     u5620:
  3225     05AE                     l3683:
  3226                           
  3227                           ;D:\Arquivos Programas\Microchip\pic\sources\c90\common\doprnt.c: 615:    width = 0;
  3228     05AE  1283               	bcf	3,5	;RP0=0, select bank0
  3229     05AF  1303               	bcf	3,6	;RP1=0, select bank0
  3230     05B0  01B4               	clrf	sprintf@width
  3231     05B1  01B5               	clrf	sprintf@width+1
  3232     05B2                     l3685:
  3233                           
  3234                           ;D:\Arquivos Programas\Microchip\pic\sources\c90\common\doprnt.c: 617:     width *= 10;
  3235     05B2  300A               	movlw	10
  3236     05B3  00F2               	movwf	___wmul@multiplier
  3237     05B4  3000               	movlw	0
  3238     05B5  00F3               	movwf	___wmul@multiplier+1
  3239     05B6  1283               	bcf	3,5	;RP0=0, select bank0
  3240     05B7  1303               	bcf	3,6	;RP1=0, select bank0
  3241     05B8  0835               	movf	sprintf@width+1,w
  3242     05B9  00F5               	movwf	___wmul@multiplicand+1
  3243     05BA  0834               	movf	sprintf@width,w
  3244     05BB  00F4               	movwf	___wmul@multiplicand
  3245     05BC  160A  118A  27A8  120A  118A  	fcall	___wmul
  3246     05C1  0873               	movf	?___wmul+1,w
  3247     05C2  1283               	bcf	3,5	;RP0=0, select bank0
  3248     05C3  1303               	bcf	3,6	;RP1=0, select bank0
  3249     05C4  00B5               	movwf	sprintf@width+1
  3250     05C5  0872               	movf	?___wmul,w
  3251     05C6  00B4               	movwf	sprintf@width
  3252     05C7                     l3687:
  3253                           
  3254                           ;D:\Arquivos Programas\Microchip\pic\sources\c90\common\doprnt.c: 618:        width += *
      +                          f++ - '0';
  3255     05C7  0825               	movf	sprintf@f,w
  3256     05C8  0084               	movwf	4
  3257     05C9  160A  118A  200A  120A  118A  	fcall	stringdir
  3258     05CE  3ED0               	addlw	208
  3259     05CF  00AC               	movwf	??_sprintf
  3260     05D0  30FF               	movlw	255
  3261     05D1  1803               	skipnc
  3262     05D2  3000               	movlw	0
  3263     05D3  00AD               	movwf	??_sprintf+1
  3264     05D4  082C               	movf	??_sprintf,w
  3265     05D5  07B4               	addwf	sprintf@width,f
  3266     05D6  1803               	skipnc
  3267     05D7  0AB5               	incf	sprintf@width+1,f
  3268     05D8  082D               	movf	??_sprintf+1,w
  3269     05D9  07B5               	addwf	sprintf@width+1,f
  3270     05DA                     l3689:
  3271     05DA  3001               	movlw	1
  3272     05DB  00AC               	movwf	??_sprintf
  3273     05DC  082C               	movf	??_sprintf,w
  3274     05DD  07A5               	addwf	sprintf@f,f
  3275     05DE                     l3691:
  3276                           
  3277                           ;D:\Arquivos Programas\Microchip\pic\sources\c90\common\doprnt.c: 619:    } while(isdigi
      +                          t((unsigned)*f));
  3278     05DE  0825               	movf	sprintf@f,w
  3279     05DF  0084               	movwf	4
  3280     05E0  160A  118A  200A  120A  118A  	fcall	stringdir
  3281     05E5  160A  118A  2767  120A  118A  	fcall	_isdigit
  3282     05EA  1803               	btfsc	3,0
  3283     05EB  2DED               	goto	u5631
  3284     05EC  2DEE               	goto	u5630
  3285     05ED                     u5631:
  3286     05ED  2DB2               	goto	l3685
  3287     05EE                     u5630:
  3288     05EE                     l3693:
  3289                           
  3290                           ;D:\Arquivos Programas\Microchip\pic\sources\c90\common\doprnt.c: 628:   if(*f == '.') {
  3291     05EE  1283               	bcf	3,5	;RP0=0, select bank0
  3292     05EF  1303               	bcf	3,6	;RP1=0, select bank0
  3293     05F0  0825               	movf	sprintf@f,w
  3294     05F1  0084               	movwf	4
  3295     05F2  160A  118A  200A  120A  118A  	fcall	stringdir
  3296     05F7  3A2E               	xorlw	46
  3297     05F8  1D03               	skipz
  3298     05F9  2DFB               	goto	u5641
  3299     05FA  2DFC               	goto	u5640
  3300     05FB                     u5641:
  3301     05FB  2E2F               	goto	l3707
  3302     05FC                     u5640:
  3303     05FC                     l3695:
  3304                           
  3305                           ;D:\Arquivos Programas\Microchip\pic\sources\c90\common\doprnt.c: 630:    f++;
  3306     05FC  3001               	movlw	1
  3307     05FD  00AC               	movwf	??_sprintf
  3308     05FE  082C               	movf	??_sprintf,w
  3309     05FF  07A5               	addwf	sprintf@f,f
  3310     0600                     l3697:
  3311                           
  3312                           ;D:\Arquivos Programas\Microchip\pic\sources\c90\common\doprnt.c: 644:    {;D:\Arquivos 
      +                          Programas\Microchip\pic\sources\c90\common\doprnt.c: 645:     prec = 0;
  3313     0600  01B6               	clrf	sprintf@prec
  3314                           
  3315                           ;D:\Arquivos Programas\Microchip\pic\sources\c90\common\doprnt.c: 646:     while(isdigit
      +                          ((unsigned)*f)) {
  3316     0601  2E1E               	goto	l3705
  3317     0602                     l3699:
  3318                           
  3319                           ;D:\Arquivos Programas\Microchip\pic\sources\c90\common\doprnt.c: 647:      prec *= 10;
  3320     0602  1283               	bcf	3,5	;RP0=0, select bank0
  3321     0603  1303               	bcf	3,6	;RP1=0, select bank0
  3322     0604  0836               	movf	sprintf@prec,w
  3323     0605  00F2               	movwf	___bmul@multiplicand
  3324     0606  300A               	movlw	10
  3325     0607  160A  118A  2779  120A  118A  	fcall	___bmul
  3326     060C  1283               	bcf	3,5	;RP0=0, select bank0
  3327     060D  1303               	bcf	3,6	;RP1=0, select bank0
  3328     060E  00B6               	movwf	sprintf@prec
  3329     060F                     l3701:
  3330                           
  3331                           ;D:\Arquivos Programas\Microchip\pic\sources\c90\common\doprnt.c: 648:         prec += *
      +                          f++ - '0';
  3332     060F  0825               	movf	sprintf@f,w
  3333     0610  0084               	movwf	4
  3334     0611  160A  118A  200A  120A  118A  	fcall	stringdir
  3335     0616  3ED0               	addlw	-48
  3336     0617  00AC               	movwf	??_sprintf
  3337     0618  082C               	movf	??_sprintf,w
  3338     0619  07B6               	addwf	sprintf@prec,f
  3339     061A                     l3703:
  3340     061A  3001               	movlw	1
  3341     061B  00AC               	movwf	??_sprintf
  3342     061C  082C               	movf	??_sprintf,w
  3343     061D  07A5               	addwf	sprintf@f,f
  3344     061E                     l3705:
  3345                           
  3346                           ;D:\Arquivos Programas\Microchip\pic\sources\c90\common\doprnt.c: 646:     while(isdigit
      +                          ((unsigned)*f)) {
  3347     061E  0825               	movf	sprintf@f,w
  3348     061F  0084               	movwf	4
  3349     0620  160A  118A  200A  120A  118A  	fcall	stringdir
  3350     0625  160A  118A  2767  120A  118A  	fcall	_isdigit
  3351     062A  1803               	btfsc	3,0
  3352     062B  2E2D               	goto	u5651
  3353     062C  2E2E               	goto	u5650
  3354     062D                     u5651:
  3355     062D  2E02               	goto	l3699
  3356     062E                     u5650:
  3357     062E  2E30               	goto	l3711
  3358     062F                     l3707:
  3359                           
  3360                           ;D:\Arquivos Programas\Microchip\pic\sources\c90\common\doprnt.c: 652:    prec = 0;
  3361     062F  01B6               	clrf	sprintf@prec
  3362     0630                     l3711:
  3363     0630  3001               	movlw	1
  3364     0631  1283               	bcf	3,5	;RP0=0, select bank0
  3365     0632  1303               	bcf	3,6	;RP1=0, select bank0
  3366     0633  07A5               	addwf	sprintf@f,f
  3367     0634  30FF               	movlw	-1
  3368     0635  0725               	addwf	sprintf@f,w
  3369     0636  0084               	movwf	4
  3370     0637  160A  118A  200A  120A  118A  	fcall	stringdir
  3371     063C  00B7               	movwf	sprintf@c
  3372     063D  00AC               	movwf	??_sprintf
  3373     063E  01AD               	clrf	??_sprintf+1
  3374                           
  3375                           ; Switch on 2 bytes has been partitioned into a top level switch of size 1, and 1 sub-sw
      +                          itches
  3376                           ; Switch size 1, requested type "simple"
  3377                           ; Number of cases is 1, Range of values is 0 to 0
  3378                           ; switch strategies available:
  3379                           ; Name         Instructions Cycles
  3380                           ; simple_byte            4     3 (average)
  3381                           ; direct_byte           11     8 (fixed)
  3382                           ; jumptable            260     6 (fixed)
  3383                           ;	Chosen strategy is simple_byte
  3384     063F  082D               	movf	??_sprintf+1,w
  3385     0640  3A00               	xorlw	0	; case 0
  3386     0641  1903               	skipnz
  3387     0642  2E44               	goto	l4439
  3388     0643  2F63               	goto	l3787
  3389     0644                     l4439:
  3390                           
  3391                           ; Switch size 1, requested type "simple"
  3392                           ; Number of cases is 3, Range of values is 0 to 105
  3393                           ; switch strategies available:
  3394                           ; Name         Instructions Cycles
  3395                           ; simple_byte           10     6 (average)
  3396                           ; jumptable            260     6 (fixed)
  3397                           ;	Chosen strategy is simple_byte
  3398     0644  082C               	movf	??_sprintf,w
  3399     0645  3A00               	xorlw	0	; case 0
  3400     0646  1903               	skipnz
  3401     0647  2F73               	goto	l3789
  3402     0648  3A64               	xorlw	100	; case 100
  3403     0649  1903               	skipnz
  3404     064A  2E4F               	goto	l3713
  3405     064B  3A0D               	xorlw	13	; case 105
  3406     064C  1903               	skipnz
  3407     064D  2E4F               	goto	l3713
  3408     064E  2F63               	goto	l3787
  3409     064F                     l3713:
  3410                           
  3411                           ;D:\Arquivos Programas\Microchip\pic\sources\c90\common\doprnt.c: 1279:   {;D:\Arquivos 
      +                          Programas\Microchip\pic\sources\c90\common\doprnt.c: 1285:     val = (unsigned int)(*(in
      +                          t *)__va_arg((*(int **)ap), (int)0));
  3412     064F  082F               	movf	sprintf@ap,w
  3413     0650  0084               	movwf	4
  3414     0651  1383               	bcf	3,7	;select IRP bank0
  3415     0652  0800               	movf	0,w
  3416     0653  00B1               	movwf	sprintf@val
  3417     0654  0A84               	incf	4,f
  3418     0655  0800               	movf	0,w
  3419     0656  00B2               	movwf	sprintf@val+1
  3420     0657                     l3715:
  3421     0657  3002               	movlw	2
  3422     0658  00AC               	movwf	??_sprintf
  3423     0659  082C               	movf	??_sprintf,w
  3424     065A  07AF               	addwf	sprintf@ap,f
  3425     065B                     l3717:
  3426                           
  3427                           ;D:\Arquivos Programas\Microchip\pic\sources\c90\common\doprnt.c: 1287:    if((int)val <
      +                           0) {
  3428     065B  1FB2               	btfss	sprintf@val+1,7
  3429     065C  2E5E               	goto	u5661
  3430     065D  2E5F               	goto	u5660
  3431     065E                     u5661:
  3432     065E  2E68               	goto	l3723
  3433     065F                     u5660:
  3434     065F                     l3719:
  3435                           
  3436                           ;D:\Arquivos Programas\Microchip\pic\sources\c90\common\doprnt.c: 1288:     flag |= 0x03
      +                          ;
  3437     065F  3003               	movlw	3
  3438     0660  00AC               	movwf	??_sprintf
  3439     0661  082C               	movf	??_sprintf,w
  3440     0662  04B0               	iorwf	sprintf@flag,f
  3441     0663                     l3721:
  3442                           
  3443                           ;D:\Arquivos Programas\Microchip\pic\sources\c90\common\doprnt.c: 1289:     val = -val;
  3444     0663  09B1               	comf	sprintf@val,f
  3445     0664  09B2               	comf	sprintf@val+1,f
  3446     0665  0AB1               	incf	sprintf@val,f
  3447     0666  1903               	skipnz
  3448     0667  0AB2               	incf	sprintf@val+1,f
  3449     0668                     l3723:
  3450                           
  3451                           ;D:\Arquivos Programas\Microchip\pic\sources\c90\common\doprnt.c: 1292:   };D:\Arquivos 
      +                          Programas\Microchip\pic\sources\c90\common\doprnt.c: 1316:   if(prec == 0 && val == 0)
  3452     0668  0836               	movf	sprintf@prec,w
  3453     0669  1D03               	btfss	3,2
  3454     066A  2E6C               	goto	u5671
  3455     066B  2E6D               	goto	u5670
  3456     066C                     u5671:
  3457     066C  2E77               	goto	l3729
  3458     066D                     u5670:
  3459     066D                     l3725:
  3460     066D  0831               	movf	sprintf@val,w
  3461     066E  0432               	iorwf	sprintf@val+1,w
  3462     066F  1D03               	btfss	3,2
  3463     0670  2E72               	goto	u5681
  3464     0671  2E73               	goto	u5680
  3465     0672                     u5681:
  3466     0672  2E77               	goto	l3729
  3467     0673                     u5680:
  3468     0673                     l3727:
  3469                           
  3470                           ;D:\Arquivos Programas\Microchip\pic\sources\c90\common\doprnt.c: 1317:    prec++;
  3471     0673  3001               	movlw	1
  3472     0674  00AC               	movwf	??_sprintf
  3473     0675  082C               	movf	??_sprintf,w
  3474     0676  07B6               	addwf	sprintf@prec,f
  3475     0677                     l3729:
  3476                           
  3477                           ;D:\Arquivos Programas\Microchip\pic\sources\c90\common\doprnt.c: 1331:    for(c = 1 ; c
      +                           != sizeof dpowers/sizeof dpowers[0] ; c++)
  3478     0677  01B7               	clrf	sprintf@c
  3479     0678  0AB7               	incf	sprintf@c,f
  3480     0679                     l3733:
  3481                           
  3482                           ;D:\Arquivos Programas\Microchip\pic\sources\c90\common\doprnt.c: 1332:     if(val < dpo
      +                          wers[c])
  3483     0679  0837               	movf	sprintf@c,w
  3484     067A  00AC               	movwf	??_sprintf
  3485     067B  072C               	addwf	??_sprintf,w
  3486     067C  3E01               	addlw	low ((_dpowers-__stringbase)| (0+32768))
  3487     067D  0084               	movwf	4
  3488     067E  160A  118A  200A  120A  118A  	fcall	stringdir
  3489     0683  00AD               	movwf	??_sprintf+1
  3490     0684  160A  118A  200A  120A  118A  	fcall	stringdir
  3491     0689  00AE               	movwf	??_sprintf+2
  3492     068A  082E               	movf	??_sprintf+2,w
  3493     068B  0232               	subwf	sprintf@val+1,w
  3494     068C  1D03               	skipz
  3495     068D  2E90               	goto	u5695
  3496     068E  082D               	movf	??_sprintf+1,w
  3497     068F  0231               	subwf	sprintf@val,w
  3498     0690                     u5695:
  3499     0690  1803               	skipnc
  3500     0691  2E93               	goto	u5691
  3501     0692  2E94               	goto	u5690
  3502     0693                     u5691:
  3503     0693  2E95               	goto	l3737
  3504     0694                     u5690:
  3505     0694  2E9F               	goto	l3739
  3506     0695                     l3737:
  3507     0695  3001               	movlw	1
  3508     0696  00AC               	movwf	??_sprintf
  3509     0697  082C               	movf	??_sprintf,w
  3510     0698  07B7               	addwf	sprintf@c,f
  3511     0699  3005               	movlw	5
  3512     069A  0637               	xorwf	sprintf@c,w
  3513     069B  1D03               	btfss	3,2
  3514     069C  2E9E               	goto	u5701
  3515     069D  2E9F               	goto	u5700
  3516     069E                     u5701:
  3517     069E  2E79               	goto	l3733
  3518     069F                     u5700:
  3519     069F                     l3739:
  3520                           
  3521                           ;D:\Arquivos Programas\Microchip\pic\sources\c90\common\doprnt.c: 1365:   if(c < prec)
  3522     069F  0836               	movf	sprintf@prec,w
  3523     06A0  00AC               	movwf	??_sprintf
  3524     06A1  01AD               	clrf	??_sprintf+1
  3525     06A2  1BAC               	btfsc	??_sprintf,7
  3526     06A3  03AD               	decf	??_sprintf+1,f
  3527     06A4  082D               	movf	??_sprintf+1,w
  3528     06A5  3A80               	xorlw	128
  3529     06A6  3C80               	sublw	128
  3530     06A7  1D03               	skipz
  3531     06A8  2EAB               	goto	u5715
  3532     06A9  082C               	movf	??_sprintf,w
  3533     06AA  0237               	subwf	sprintf@c,w
  3534     06AB                     u5715:
  3535     06AB  1803               	skipnc
  3536     06AC  2EAE               	goto	u5711
  3537     06AD  2EAF               	goto	u5710
  3538     06AE                     u5711:
  3539     06AE  2EB4               	goto	l3743
  3540     06AF                     u5710:
  3541     06AF                     l3741:
  3542                           
  3543                           ;D:\Arquivos Programas\Microchip\pic\sources\c90\common\doprnt.c: 1366:    c = (char)pre
      +                          c;
  3544     06AF  1283               	bcf	3,5	;RP0=0, select bank0
  3545     06B0  1303               	bcf	3,6	;RP1=0, select bank0
  3546     06B1  0836               	movf	sprintf@prec,w
  3547     06B2  00B7               	movwf	sprintf@c
  3548     06B3  2ECC               	goto	l3747
  3549     06B4                     l3743:
  3550     06B4  1283               	bcf	3,5	;RP0=0, select bank0
  3551     06B5  1303               	bcf	3,6	;RP1=0, select bank0
  3552     06B6  0836               	movf	sprintf@prec,w
  3553     06B7  00AC               	movwf	??_sprintf
  3554     06B8  01AD               	clrf	??_sprintf+1
  3555     06B9  1BAC               	btfsc	??_sprintf,7
  3556     06BA  03AD               	decf	??_sprintf+1,f
  3557     06BB  082D               	movf	??_sprintf+1,w
  3558     06BC  3A80               	xorlw	128
  3559     06BD  00AE               	movwf	??_sprintf+2
  3560     06BE  3080               	movlw	128
  3561     06BF  022E               	subwf	??_sprintf+2,w
  3562     06C0  1D03               	skipz
  3563     06C1  2EC4               	goto	u5725
  3564     06C2  0837               	movf	sprintf@c,w
  3565     06C3  022C               	subwf	??_sprintf,w
  3566     06C4                     u5725:
  3567     06C4  1803               	skipnc
  3568     06C5  2EC7               	goto	u5721
  3569     06C6  2EC8               	goto	u5720
  3570     06C7                     u5721:
  3571     06C7  2ECC               	goto	l3747
  3572     06C8                     u5720:
  3573     06C8                     l3745:
  3574                           
  3575                           ;D:\Arquivos Programas\Microchip\pic\sources\c90\common\doprnt.c: 1368:    prec = c;
  3576     06C8  1283               	bcf	3,5	;RP0=0, select bank0
  3577     06C9  1303               	bcf	3,6	;RP1=0, select bank0
  3578     06CA  0837               	movf	sprintf@c,w
  3579     06CB  00B6               	movwf	sprintf@prec
  3580     06CC                     l3747:
  3581                           
  3582                           ;D:\Arquivos Programas\Microchip\pic\sources\c90\common\doprnt.c: 1371:   if(width && fl
      +                          ag & 0x03)
  3583     06CC  1283               	bcf	3,5	;RP0=0, select bank0
  3584     06CD  1303               	bcf	3,6	;RP1=0, select bank0
  3585     06CE  0834               	movf	sprintf@width,w
  3586     06CF  0435               	iorwf	sprintf@width+1,w
  3587     06D0  1903               	btfsc	3,2
  3588     06D1  2ED3               	goto	u5731
  3589     06D2  2ED4               	goto	u5730
  3590     06D3                     u5731:
  3591     06D3  2EE0               	goto	l3759
  3592     06D4                     u5730:
  3593     06D4                     l3749:
  3594     06D4  0830               	movf	sprintf@flag,w
  3595     06D5  3903               	andlw	3
  3596     06D6  1903               	btfsc	3,2
  3597     06D7  2ED9               	goto	u5741
  3598     06D8  2EDA               	goto	u5740
  3599     06D9                     u5741:
  3600     06D9  2EE0               	goto	l3759
  3601     06DA                     u5740:
  3602     06DA                     l3751:
  3603                           
  3604                           ;D:\Arquivos Programas\Microchip\pic\sources\c90\common\doprnt.c: 1372:    width--;
  3605     06DA  30FF               	movlw	255
  3606     06DB  07B4               	addwf	sprintf@width,f
  3607     06DC  1803               	skipnc
  3608     06DD  0AB5               	incf	sprintf@width+1,f
  3609     06DE  30FF               	movlw	255
  3610     06DF  07B5               	addwf	sprintf@width+1,f
  3611     06E0                     l3759:
  3612                           
  3613                           ;D:\Arquivos Programas\Microchip\pic\sources\c90\common\doprnt.c: 1407:   if(width > c)
  3614     06E0  0835               	movf	sprintf@width+1,w
  3615     06E1  3A80               	xorlw	128
  3616     06E2  3C80               	sublw	128
  3617     06E3  1D03               	skipz
  3618     06E4  2EE7               	goto	u5755
  3619     06E5  0834               	movf	sprintf@width,w
  3620     06E6  0237               	subwf	sprintf@c,w
  3621     06E7                     u5755:
  3622     06E7  1803               	skipnc
  3623     06E8  2EEA               	goto	u5751
  3624     06E9  2EEB               	goto	u5750
  3625     06EA                     u5751:
  3626     06EA  2EF7               	goto	l3763
  3627     06EB                     u5750:
  3628     06EB                     l3761:
  3629                           
  3630                           ;D:\Arquivos Programas\Microchip\pic\sources\c90\common\doprnt.c: 1408:    width -= c;
  3631     06EB  1283               	bcf	3,5	;RP0=0, select bank0
  3632     06EC  1303               	bcf	3,6	;RP1=0, select bank0
  3633     06ED  0837               	movf	sprintf@c,w
  3634     06EE  00AC               	movwf	??_sprintf
  3635     06EF  01AD               	clrf	??_sprintf+1
  3636     06F0  082C               	movf	??_sprintf,w
  3637     06F1  02B4               	subwf	sprintf@width,f
  3638     06F2  082D               	movf	??_sprintf+1,w
  3639     06F3  1C03               	skipc
  3640     06F4  03B5               	decf	sprintf@width+1,f
  3641     06F5  02B5               	subwf	sprintf@width+1,f
  3642     06F6  2EFB               	goto	l3765
  3643     06F7                     l3763:
  3644                           
  3645                           ;D:\Arquivos Programas\Microchip\pic\sources\c90\common\doprnt.c: 1410:    width = 0;
  3646     06F7  1283               	bcf	3,5	;RP0=0, select bank0
  3647     06F8  1303               	bcf	3,6	;RP1=0, select bank0
  3648     06F9  01B4               	clrf	sprintf@width
  3649     06FA  01B5               	clrf	sprintf@width+1
  3650     06FB                     l3765:
  3651                           
  3652                           ;D:\Arquivos Programas\Microchip\pic\sources\c90\common\doprnt.c: 1448:   {;D:\Arquivos 
      +                          Programas\Microchip\pic\sources\c90\common\doprnt.c: 1450:    if(width
  3653     06FB  0834               	movf	sprintf@width,w
  3654     06FC  0435               	iorwf	sprintf@width+1,w
  3655     06FD  1903               	btfsc	3,2
  3656     06FE  2F00               	goto	u5761
  3657     06FF  2F01               	goto	u5760
  3658     0700                     u5761:
  3659     0700  2F16               	goto	l3773
  3660     0701                     u5760:
  3661     0701                     l3767:
  3662                           
  3663                           ;D:\Arquivos Programas\Microchip\pic\sources\c90\common\doprnt.c: 1456:      ((*sp++ = (
      +                          ' ')));
  3664     0701  0833               	movf	sprintf@sp,w
  3665     0702  0084               	movwf	4
  3666     0703  3020               	movlw	32
  3667     0704  1383               	bcf	3,7	;select IRP bank0
  3668     0705  0080               	movwf	0
  3669     0706                     l3769:
  3670     0706  3001               	movlw	1
  3671     0707  00AC               	movwf	??_sprintf
  3672     0708  082C               	movf	??_sprintf,w
  3673     0709  07B3               	addwf	sprintf@sp,f
  3674     070A                     l3771:
  3675     070A  30FF               	movlw	255
  3676     070B  07B4               	addwf	sprintf@width,f
  3677     070C  1803               	skipnc
  3678     070D  0AB5               	incf	sprintf@width+1,f
  3679     070E  30FF               	movlw	255
  3680     070F  07B5               	addwf	sprintf@width+1,f
  3681     0710  0834               	movf	sprintf@width,w
  3682     0711  0435               	iorwf	sprintf@width+1,w
  3683     0712  1D03               	btfss	3,2
  3684     0713  2F15               	goto	u5771
  3685     0714  2F16               	goto	u5770
  3686     0715                     u5771:
  3687     0715  2F01               	goto	l3767
  3688     0716                     u5770:
  3689     0716                     l3773:
  3690                           
  3691                           ;D:\Arquivos Programas\Microchip\pic\sources\c90\common\doprnt.c: 1464:    if(flag & 0x0
      +                          3)
  3692     0716  0830               	movf	sprintf@flag,w
  3693     0717  3903               	andlw	3
  3694     0718  1903               	btfsc	3,2
  3695     0719  2F1B               	goto	u5781
  3696     071A  2F1C               	goto	u5780
  3697     071B                     u5781:
  3698     071B  2F5A               	goto	l3785
  3699     071C                     u5780:
  3700     071C                     l3775:
  3701                           
  3702                           ;D:\Arquivos Programas\Microchip\pic\sources\c90\common\doprnt.c: 1465:     ((*sp++ = ('
      +                          -')));
  3703     071C  0833               	movf	sprintf@sp,w
  3704     071D  0084               	movwf	4
  3705     071E  302D               	movlw	45
  3706     071F  1383               	bcf	3,7	;select IRP bank0
  3707     0720  0080               	movwf	0
  3708     0721                     l3777:
  3709     0721  3001               	movlw	1
  3710     0722  00AC               	movwf	??_sprintf
  3711     0723  082C               	movf	??_sprintf,w
  3712     0724  07B3               	addwf	sprintf@sp,f
  3713     0725  2F5A               	goto	l3785
  3714     0726                     l3779:
  3715                           
  3716                           ;D:\Arquivos Programas\Microchip\pic\sources\c90\common\doprnt.c: 1504:    {;D:\Arquivos
      +                           Programas\Microchip\pic\sources\c90\common\doprnt.c: 1515:     c = (val / dpowers[(unsi
      +                          gned char)prec]) % 10 + '0';
  3717     0726  300A               	movlw	10
  3718     0727  00A0               	movwf	___lwmod@divisor
  3719     0728  3000               	movlw	0
  3720     0729  00A1               	movwf	___lwmod@divisor+1
  3721     072A  0836               	movf	sprintf@prec,w
  3722     072B  00AC               	movwf	??_sprintf
  3723     072C  072C               	addwf	??_sprintf,w
  3724     072D  3E01               	addlw	low ((_dpowers-__stringbase)| (0+32768))
  3725     072E  0084               	movwf	4
  3726     072F  160A  118A  200A  120A  118A  	fcall	stringdir
  3727     0734  00F2               	movwf	___lwdiv@divisor
  3728     0735  160A  118A  200A  120A  118A  	fcall	stringdir
  3729     073A  00F3               	movwf	___lwdiv@divisor+1
  3730     073B  0832               	movf	sprintf@val+1,w
  3731     073C  00F5               	movwf	___lwdiv@dividend+1
  3732     073D  0831               	movf	sprintf@val,w
  3733     073E  00F4               	movwf	___lwdiv@dividend
  3734     073F  120A  158A  20A2  120A  118A  	fcall	___lwdiv
  3735     0744  0873               	movf	?___lwdiv+1,w
  3736     0745  1283               	bcf	3,5	;RP0=0, select bank0
  3737     0746  1303               	bcf	3,6	;RP1=0, select bank0
  3738     0747  00A3               	movwf	___lwmod@dividend+1
  3739     0748  0872               	movf	?___lwdiv,w
  3740     0749  00A2               	movwf	___lwmod@dividend
  3741     074A  120A  158A  2022  120A  118A  	fcall	___lwmod
  3742     074F  1283               	bcf	3,5	;RP0=0, select bank0
  3743     0750  1303               	bcf	3,6	;RP1=0, select bank0
  3744     0751  0820               	movf	?___lwmod,w
  3745     0752  3E30               	addlw	48
  3746     0753  00B7               	movwf	sprintf@c
  3747     0754                     l3781:
  3748                           
  3749                           ;D:\Arquivos Programas\Microchip\pic\sources\c90\common\doprnt.c: 1549:    };D:\Arquivos
      +                           Programas\Microchip\pic\sources\c90\common\doprnt.c: 1550:    ((*sp++ = (c)));
  3750     0754  0833               	movf	sprintf@sp,w
  3751     0755  0084               	movwf	4
  3752     0756  0837               	movf	sprintf@c,w
  3753     0757  1383               	bcf	3,7	;select IRP bank0
  3754     0758  0080               	movwf	0
  3755     0759  2F21               	goto	l3777
  3756     075A                     l3785:
  3757                           
  3758                           ;D:\Arquivos Programas\Microchip\pic\sources\c90\common\doprnt.c: 1500:   while(prec--) 
      +                          {
  3759     075A  30FF               	movlw	255
  3760     075B  00AC               	movwf	??_sprintf
  3761     075C  082C               	movf	??_sprintf,w
  3762     075D  07B6               	addwf	sprintf@prec,f
  3763     075E  0A36               	incf	sprintf@prec,w
  3764     075F  1D03               	btfss	3,2
  3765     0760  2F62               	goto	u5791
  3766     0761  2F63               	goto	u5790
  3767     0762                     u5791:
  3768     0762  2F26               	goto	l3779
  3769     0763                     u5790:
  3770     0763                     l3787:
  3771                           
  3772                           ;D:\Arquivos Programas\Microchip\pic\sources\c90\common\doprnt.c: 553:  while((c = *f++)
      +                          ) {
  3773     0763  3001               	movlw	1
  3774     0764  07A5               	addwf	sprintf@f,f
  3775     0765  30FF               	movlw	-1
  3776     0766  0725               	addwf	sprintf@f,w
  3777     0767  0084               	movwf	4
  3778     0768  160A  118A  200A  120A  118A  	fcall	stringdir
  3779     076D  00B7               	movwf	sprintf@c
  3780     076E  0837               	movf	sprintf@c,w
  3781     076F  1D03               	btfss	3,2
  3782     0770  2F72               	goto	u5801
  3783     0771  2F73               	goto	u5800
  3784     0772                     u5801:
  3785     0772  2D8B               	goto	l3673
  3786     0773                     u5800:
  3787     0773                     l3789:
  3788                           
  3789                           ;D:\Arquivos Programas\Microchip\pic\sources\c90\common\doprnt.c: 1564:  *sp = 0;
  3790     0773  0833               	movf	sprintf@sp,w
  3791     0774  0084               	movwf	4
  3792     0775  1383               	bcf	3,7	;select IRP bank0
  3793     0776  0180               	clrf	0
  3794     0777                     l386:
  3795     0777  0008               	return
  3796     0778                     __end_of_sprintf:
  3797                           
  3798                           	psect	text2
  3799     1767                     __ptext2:	
  3800 ;; *************** function _isdigit *****************
  3801 ;; Defined at:
  3802 ;;		line 8 in file "D:\Arquivos Programas\Microchip\pic\sources\c90\common\isdigit.c"
  3803 ;; Parameters:    Size  Location     Type
  3804 ;;  c               1    wreg     unsigned char 
  3805 ;; Auto vars:     Size  Location     Type
  3806 ;;  c               1    3[COMMON] unsigned char 
  3807 ;; Return value:  Size  Location     Type
  3808 ;;		None               void
  3809 ;; Registers used:
  3810 ;;		wreg, status,2, status,0
  3811 ;; Tracked objects:
  3812 ;;		On entry : 0/0
  3813 ;;		On exit  : 0/0
  3814 ;;		Unchanged: 0/0
  3815 ;; Data sizes:     COMMON   BANK0   BANK1   BANK3   BANK2
  3816 ;;      Params:         0       0       0       0       0
  3817 ;;      Locals:         2       0       0       0       0
  3818 ;;      Temps:          0       0       0       0       0
  3819 ;;      Totals:         2       0       0       0       0
  3820 ;;Total ram usage:        2 bytes
  3821 ;; Hardware stack levels used: 1
  3822 ;; Hardware stack levels required when called: 1
  3823 ;; This function calls:
  3824 ;;		Nothing
  3825 ;; This function is called by:
  3826 ;;		_sprintf
  3827 ;; This function uses a non-reentrant model
  3828 ;;
  3829                           
  3830     1767                     _isdigit:	
  3831                           ;psect for function _isdigit
  3832                           
  3833                           
  3834                           ;incstack = 0
  3835                           ; Regs used in _isdigit: [wreg+status,2+status,0]
  3836                           ;isdigit@c stored from wreg
  3837     1767  00F3               	movwf	isdigit@c
  3838     1768                     l2283:
  3839     1768  01F2               	clrf	_isdigit$858
  3840     1769                     l2285:
  3841     1769  303A               	movlw	58
  3842     176A  0273               	subwf	isdigit@c,w
  3843     176B  1803               	skipnc
  3844     176C  2F6E               	goto	u2771
  3845     176D  2F6F               	goto	u2770
  3846     176E                     u2771:
  3847     176E  2F77               	goto	l2291
  3848     176F                     u2770:
  3849     176F                     l2287:
  3850     176F  3030               	movlw	48
  3851     1770  0273               	subwf	isdigit@c,w
  3852     1771  1C03               	skipc
  3853     1772  2F74               	goto	u2781
  3854     1773  2F75               	goto	u2780
  3855     1774                     u2781:
  3856     1774  2F77               	goto	l2291
  3857     1775                     u2780:
  3858     1775                     l2289:
  3859     1775  01F2               	clrf	_isdigit$858
  3860     1776  0AF2               	incf	_isdigit$858,f
  3861     1777                     l2291:
  3862     1777  0C72               	rrf	_isdigit$858,w
  3863     1778                     l843:
  3864     1778  0008               	return
  3865     1779                     __end_of_isdigit:
  3866                           
  3867                           	psect	text3
  3868     17A8                     __ptext3:	
  3869 ;; *************** function ___wmul *****************
  3870 ;; Defined at:
  3871 ;;		line 15 in file "D:\Arquivos Programas\Microchip\pic\sources\c90\common\Umul16.c"
  3872 ;; Parameters:    Size  Location     Type
  3873 ;;  multiplier      2    2[COMMON] unsigned int 
  3874 ;;  multiplicand    2    4[COMMON] unsigned int 
  3875 ;; Auto vars:     Size  Location     Type
  3876 ;;  product         2    6[COMMON] unsigned int 
  3877 ;; Return value:  Size  Location     Type
  3878 ;;                  2    2[COMMON] unsigned int 
  3879 ;; Registers used:
  3880 ;;		wreg, status,2, status,0
  3881 ;; Tracked objects:
  3882 ;;		On entry : 0/0
  3883 ;;		On exit  : 0/0
  3884 ;;		Unchanged: 0/0
  3885 ;; Data sizes:     COMMON   BANK0   BANK1   BANK3   BANK2
  3886 ;;      Params:         4       0       0       0       0
  3887 ;;      Locals:         2       0       0       0       0
  3888 ;;      Temps:          0       0       0       0       0
  3889 ;;      Totals:         6       0       0       0       0
  3890 ;;Total ram usage:        6 bytes
  3891 ;; Hardware stack levels used: 1
  3892 ;; Hardware stack levels required when called: 1
  3893 ;; This function calls:
  3894 ;;		Nothing
  3895 ;; This function is called by:
  3896 ;;		_sprintf
  3897 ;; This function uses a non-reentrant model
  3898 ;;
  3899                           
  3900     17A8                     ___wmul:	
  3901                           ;psect for function ___wmul
  3902                           
  3903     17A8                     l2295:	
  3904                           ;incstack = 0
  3905                           ; Regs used in ___wmul: [wreg+status,2+status,0]
  3906                           
  3907     17A8  01F6               	clrf	___wmul@product
  3908     17A9  01F7               	clrf	___wmul@product+1
  3909     17AA                     l2297:
  3910     17AA  1C72               	btfss	___wmul@multiplier,0
  3911     17AB  2FAD               	goto	u2791
  3912     17AC  2FAE               	goto	u2790
  3913     17AD                     u2791:
  3914     17AD  2FB4               	goto	l390
  3915     17AE                     u2790:
  3916     17AE                     l2299:
  3917     17AE  0874               	movf	___wmul@multiplicand,w
  3918     17AF  07F6               	addwf	___wmul@product,f
  3919     17B0  1803               	skipnc
  3920     17B1  0AF7               	incf	___wmul@product+1,f
  3921     17B2  0875               	movf	___wmul@multiplicand+1,w
  3922     17B3  07F7               	addwf	___wmul@product+1,f
  3923     17B4                     l390:
  3924     17B4  3001               	movlw	1
  3925     17B5                     u2805:
  3926     17B5  1003               	clrc
  3927     17B6  0DF4               	rlf	___wmul@multiplicand,f
  3928     17B7  0DF5               	rlf	___wmul@multiplicand+1,f
  3929     17B8  3EFF               	addlw	-1
  3930     17B9  1D03               	skipz
  3931     17BA  2FB5               	goto	u2805
  3932     17BB                     l2301:
  3933     17BB  3001               	movlw	1
  3934     17BC                     u2815:
  3935     17BC  1003               	clrc
  3936     17BD  0CF3               	rrf	___wmul@multiplier+1,f
  3937     17BE  0CF2               	rrf	___wmul@multiplier,f
  3938     17BF  3EFF               	addlw	-1
  3939     17C0  1D03               	skipz
  3940     17C1  2FBC               	goto	u2815
  3941     17C2                     l2303:
  3942     17C2  0872               	movf	___wmul@multiplier,w
  3943     17C3  0473               	iorwf	___wmul@multiplier+1,w
  3944     17C4  1D03               	btfss	3,2
  3945     17C5  2FC7               	goto	u2821
  3946     17C6  2FC8               	goto	u2820
  3947     17C7                     u2821:
  3948     17C7  2FAA               	goto	l2297
  3949     17C8                     u2820:
  3950     17C8                     l2305:
  3951     17C8  0877               	movf	___wmul@product+1,w
  3952     17C9  00F3               	movwf	?___wmul+1
  3953     17CA  0876               	movf	___wmul@product,w
  3954     17CB  00F2               	movwf	?___wmul
  3955     17CC                     l392:
  3956     17CC  0008               	return
  3957     17CD                     __end_of___wmul:
  3958                           
  3959                           	psect	text4
  3960     0822                     __ptext4:	
  3961 ;; *************** function ___lwmod *****************
  3962 ;; Defined at:
  3963 ;;		line 5 in file "D:\Arquivos Programas\Microchip\pic\sources\c90\common\lwmod.c"
  3964 ;; Parameters:    Size  Location     Type
  3965 ;;  divisor         2    0[BANK0 ] unsigned int 
  3966 ;;  dividend        2    2[BANK0 ] unsigned int 
  3967 ;; Auto vars:     Size  Location     Type
  3968 ;;  counter         1    4[BANK0 ] unsigned char 
  3969 ;; Return value:  Size  Location     Type
  3970 ;;                  2    0[BANK0 ] unsigned int 
  3971 ;; Registers used:
  3972 ;;		wreg, status,2, status,0
  3973 ;; Tracked objects:
  3974 ;;		On entry : 0/0
  3975 ;;		On exit  : 0/0
  3976 ;;		Unchanged: 0/0
  3977 ;; Data sizes:     COMMON   BANK0   BANK1   BANK3   BANK2
  3978 ;;      Params:         0       4       0       0       0
  3979 ;;      Locals:         0       1       0       0       0
  3980 ;;      Temps:          1       0       0       0       0
  3981 ;;      Totals:         1       5       0       0       0
  3982 ;;Total ram usage:        6 bytes
  3983 ;; Hardware stack levels used: 1
  3984 ;; Hardware stack levels required when called: 1
  3985 ;; This function calls:
  3986 ;;		Nothing
  3987 ;; This function is called by:
  3988 ;;		_sprintf
  3989 ;; This function uses a non-reentrant model
  3990 ;;
  3991                           
  3992     0822                     ___lwmod:	
  3993                           ;psect for function ___lwmod
  3994                           
  3995     0822                     l3609:	
  3996                           ;incstack = 0
  3997                           ; Regs used in ___lwmod: [wreg+status,2+status,0]
  3998                           
  3999     0822  1283               	bcf	3,5	;RP0=0, select bank0
  4000     0823  1303               	bcf	3,6	;RP1=0, select bank0
  4001     0824  0820               	movf	___lwmod@divisor,w
  4002     0825  0421               	iorwf	___lwmod@divisor+1,w
  4003     0826  1903               	btfsc	3,2
  4004     0827  2829               	goto	u5481
  4005     0828  282A               	goto	u5480
  4006     0829                     u5481:
  4007     0829  2859               	goto	l3627
  4008     082A                     u5480:
  4009     082A                     l3611:
  4010     082A  01A4               	clrf	___lwmod@counter
  4011     082B  0AA4               	incf	___lwmod@counter,f
  4012     082C  2838               	goto	l3617
  4013     082D                     l3613:
  4014     082D  3001               	movlw	1
  4015     082E                     u5495:
  4016     082E  1003               	clrc
  4017     082F  0DA0               	rlf	___lwmod@divisor,f
  4018     0830  0DA1               	rlf	___lwmod@divisor+1,f
  4019     0831  3EFF               	addlw	-1
  4020     0832  1D03               	skipz
  4021     0833  282E               	goto	u5495
  4022     0834                     l3615:
  4023     0834  3001               	movlw	1
  4024     0835  00FA               	movwf	??___lwmod
  4025     0836  087A               	movf	??___lwmod,w
  4026     0837  07A4               	addwf	___lwmod@counter,f
  4027     0838                     l3617:
  4028     0838  1FA1               	btfss	___lwmod@divisor+1,7
  4029     0839  283B               	goto	u5501
  4030     083A  283C               	goto	u5500
  4031     083B                     u5501:
  4032     083B  282D               	goto	l3613
  4033     083C                     u5500:
  4034     083C                     l3619:
  4035     083C  0821               	movf	___lwmod@divisor+1,w
  4036     083D  0223               	subwf	___lwmod@dividend+1,w
  4037     083E  1D03               	skipz
  4038     083F  2842               	goto	u5515
  4039     0840  0820               	movf	___lwmod@divisor,w
  4040     0841  0222               	subwf	___lwmod@dividend,w
  4041     0842                     u5515:
  4042     0842  1C03               	skipc
  4043     0843  2845               	goto	u5511
  4044     0844  2846               	goto	u5510
  4045     0845                     u5511:
  4046     0845  284C               	goto	l3623
  4047     0846                     u5510:
  4048     0846                     l3621:
  4049     0846  0820               	movf	___lwmod@divisor,w
  4050     0847  02A2               	subwf	___lwmod@dividend,f
  4051     0848  0821               	movf	___lwmod@divisor+1,w
  4052     0849  1C03               	skipc
  4053     084A  03A3               	decf	___lwmod@dividend+1,f
  4054     084B  02A3               	subwf	___lwmod@dividend+1,f
  4055     084C                     l3623:
  4056     084C  3001               	movlw	1
  4057     084D                     u5525:
  4058     084D  1003               	clrc
  4059     084E  0CA1               	rrf	___lwmod@divisor+1,f
  4060     084F  0CA0               	rrf	___lwmod@divisor,f
  4061     0850  3EFF               	addlw	-1
  4062     0851  1D03               	skipz
  4063     0852  284D               	goto	u5525
  4064     0853                     l3625:
  4065     0853  3001               	movlw	1
  4066     0854  02A4               	subwf	___lwmod@counter,f
  4067     0855  1D03               	btfss	3,2
  4068     0856  2858               	goto	u5531
  4069     0857  2859               	goto	u5530
  4070     0858                     u5531:
  4071     0858  283C               	goto	l3619
  4072     0859                     u5530:
  4073     0859                     l3627:
  4074     0859  0823               	movf	___lwmod@dividend+1,w
  4075     085A  00A1               	movwf	?___lwmod+1
  4076     085B  0822               	movf	___lwmod@dividend,w
  4077     085C  00A0               	movwf	?___lwmod
  4078     085D                     l672:
  4079     085D  0008               	return
  4080     085E                     __end_of___lwmod:
  4081                           
  4082                           	psect	text5
  4083     08A2                     __ptext5:	
  4084 ;; *************** function ___lwdiv *****************
  4085 ;; Defined at:
  4086 ;;		line 5 in file "D:\Arquivos Programas\Microchip\pic\sources\c90\common\lwdiv.c"
  4087 ;; Parameters:    Size  Location     Type
  4088 ;;  divisor         2    2[COMMON] unsigned int 
  4089 ;;  dividend        2    4[COMMON] unsigned int 
  4090 ;; Auto vars:     Size  Location     Type
  4091 ;;  quotient        2    7[COMMON] unsigned int 
  4092 ;;  counter         1    9[COMMON] unsigned char 
  4093 ;; Return value:  Size  Location     Type
  4094 ;;                  2    2[COMMON] unsigned int 
  4095 ;; Registers used:
  4096 ;;		wreg, status,2, status,0
  4097 ;; Tracked objects:
  4098 ;;		On entry : 0/0
  4099 ;;		On exit  : 0/0
  4100 ;;		Unchanged: 0/0
  4101 ;; Data sizes:     COMMON   BANK0   BANK1   BANK3   BANK2
  4102 ;;      Params:         4       0       0       0       0
  4103 ;;      Locals:         3       0       0       0       0
  4104 ;;      Temps:          1       0       0       0       0
  4105 ;;      Totals:         8       0       0       0       0
  4106 ;;Total ram usage:        8 bytes
  4107 ;; Hardware stack levels used: 1
  4108 ;; Hardware stack levels required when called: 1
  4109 ;; This function calls:
  4110 ;;		Nothing
  4111 ;; This function is called by:
  4112 ;;		_sprintf
  4113 ;; This function uses a non-reentrant model
  4114 ;;
  4115                           
  4116     08A2                     ___lwdiv:	
  4117                           ;psect for function ___lwdiv
  4118                           
  4119     08A2                     l2323:	
  4120                           ;incstack = 0
  4121                           ; Regs used in ___lwdiv: [wreg+status,2+status,0]
  4122                           
  4123     08A2  01F7               	clrf	___lwdiv@quotient
  4124     08A3  01F8               	clrf	___lwdiv@quotient+1
  4125     08A4                     l2325:
  4126     08A4  0872               	movf	___lwdiv@divisor,w
  4127     08A5  0473               	iorwf	___lwdiv@divisor+1,w
  4128     08A6  1903               	btfsc	3,2
  4129     08A7  28A9               	goto	u2851
  4130     08A8  28AA               	goto	u2850
  4131     08A9                     u2851:
  4132     08A9  28E1               	goto	l2345
  4133     08AA                     u2850:
  4134     08AA                     l2327:
  4135     08AA  01F9               	clrf	___lwdiv@counter
  4136     08AB  0AF9               	incf	___lwdiv@counter,f
  4137     08AC  28B8               	goto	l2333
  4138     08AD                     l2329:
  4139     08AD  3001               	movlw	1
  4140     08AE                     u2865:
  4141     08AE  1003               	clrc
  4142     08AF  0DF2               	rlf	___lwdiv@divisor,f
  4143     08B0  0DF3               	rlf	___lwdiv@divisor+1,f
  4144     08B1  3EFF               	addlw	-1
  4145     08B2  1D03               	skipz
  4146     08B3  28AE               	goto	u2865
  4147     08B4                     l2331:
  4148     08B4  3001               	movlw	1
  4149     08B5  00F6               	movwf	??___lwdiv
  4150     08B6  0876               	movf	??___lwdiv,w
  4151     08B7  07F9               	addwf	___lwdiv@counter,f
  4152     08B8                     l2333:
  4153     08B8  1FF3               	btfss	___lwdiv@divisor+1,7
  4154     08B9  28BB               	goto	u2871
  4155     08BA  28BC               	goto	u2870
  4156     08BB                     u2871:
  4157     08BB  28AD               	goto	l2329
  4158     08BC                     u2870:
  4159     08BC                     l2335:
  4160     08BC  3001               	movlw	1
  4161     08BD                     u2885:
  4162     08BD  1003               	clrc
  4163     08BE  0DF7               	rlf	___lwdiv@quotient,f
  4164     08BF  0DF8               	rlf	___lwdiv@quotient+1,f
  4165     08C0  3EFF               	addlw	-1
  4166     08C1  1D03               	skipz
  4167     08C2  28BD               	goto	u2885
  4168     08C3  0873               	movf	___lwdiv@divisor+1,w
  4169     08C4  0275               	subwf	___lwdiv@dividend+1,w
  4170     08C5  1D03               	skipz
  4171     08C6  28C9               	goto	u2895
  4172     08C7  0872               	movf	___lwdiv@divisor,w
  4173     08C8  0274               	subwf	___lwdiv@dividend,w
  4174     08C9                     u2895:
  4175     08C9  1C03               	skipc
  4176     08CA  28CC               	goto	u2891
  4177     08CB  28CD               	goto	u2890
  4178     08CC                     u2891:
  4179     08CC  28D4               	goto	l2341
  4180     08CD                     u2890:
  4181     08CD                     l2337:
  4182     08CD  0872               	movf	___lwdiv@divisor,w
  4183     08CE  02F4               	subwf	___lwdiv@dividend,f
  4184     08CF  0873               	movf	___lwdiv@divisor+1,w
  4185     08D0  1C03               	skipc
  4186     08D1  03F5               	decf	___lwdiv@dividend+1,f
  4187     08D2  02F5               	subwf	___lwdiv@dividend+1,f
  4188     08D3                     l2339:
  4189     08D3  1477               	bsf	___lwdiv@quotient,0
  4190     08D4                     l2341:
  4191     08D4  3001               	movlw	1
  4192     08D5                     u2905:
  4193     08D5  1003               	clrc
  4194     08D6  0CF3               	rrf	___lwdiv@divisor+1,f
  4195     08D7  0CF2               	rrf	___lwdiv@divisor,f
  4196     08D8  3EFF               	addlw	-1
  4197     08D9  1D03               	skipz
  4198     08DA  28D5               	goto	u2905
  4199     08DB                     l2343:
  4200     08DB  3001               	movlw	1
  4201     08DC  02F9               	subwf	___lwdiv@counter,f
  4202     08DD  1D03               	btfss	3,2
  4203     08DE  28E0               	goto	u2911
  4204     08DF  28E1               	goto	u2910
  4205     08E0                     u2911:
  4206     08E0  28BC               	goto	l2335
  4207     08E1                     u2910:
  4208     08E1                     l2345:
  4209     08E1  0878               	movf	___lwdiv@quotient+1,w
  4210     08E2  00F3               	movwf	?___lwdiv+1
  4211     08E3  0877               	movf	___lwdiv@quotient,w
  4212     08E4  00F2               	movwf	?___lwdiv
  4213     08E5                     l662:
  4214     08E5  0008               	return
  4215     08E6                     __end_of___lwdiv:
  4216                           
  4217                           	psect	text6
  4218     1779                     __ptext6:	
  4219 ;; *************** function ___bmul *****************
  4220 ;; Defined at:
  4221 ;;		line 4 in file "D:\Arquivos Programas\Microchip\pic\sources\c90\common\Umul8.c"
  4222 ;; Parameters:    Size  Location     Type
  4223 ;;  multiplier      1    wreg     unsigned char 
  4224 ;;  multiplicand    1    2[COMMON] unsigned char 
  4225 ;; Auto vars:     Size  Location     Type
  4226 ;;  multiplier      1    5[COMMON] unsigned char 
  4227 ;;  product         1    4[COMMON] unsigned char 
  4228 ;; Return value:  Size  Location     Type
  4229 ;;                  1    wreg      unsigned char 
  4230 ;; Registers used:
  4231 ;;		wreg, status,2, status,0
  4232 ;; Tracked objects:
  4233 ;;		On entry : 0/0
  4234 ;;		On exit  : 0/0
  4235 ;;		Unchanged: 0/0
  4236 ;; Data sizes:     COMMON   BANK0   BANK1   BANK3   BANK2
  4237 ;;      Params:         1       0       0       0       0
  4238 ;;      Locals:         2       0       0       0       0
  4239 ;;      Temps:          1       0       0       0       0
  4240 ;;      Totals:         4       0       0       0       0
  4241 ;;Total ram usage:        4 bytes
  4242 ;; Hardware stack levels used: 1
  4243 ;; Hardware stack levels required when called: 1
  4244 ;; This function calls:
  4245 ;;		Nothing
  4246 ;; This function is called by:
  4247 ;;		_sprintf
  4248 ;; This function uses a non-reentrant model
  4249 ;;
  4250                           
  4251     1779                     ___bmul:	
  4252                           ;psect for function ___bmul
  4253                           
  4254                           
  4255                           ;incstack = 0
  4256                           ; Regs used in ___bmul: [wreg+status,2+status,0]
  4257                           ;___bmul@multiplier stored from wreg
  4258     1779  00F5               	movwf	___bmul@multiplier
  4259     177A                     l2309:
  4260     177A  01F4               	clrf	___bmul@product
  4261     177B                     l2311:
  4262     177B  1C75               	btfss	___bmul@multiplier,0
  4263     177C  2F7E               	goto	u2831
  4264     177D  2F7F               	goto	u2830
  4265     177E                     u2831:
  4266     177E  2F83               	goto	l2315
  4267     177F                     u2830:
  4268     177F                     l2313:
  4269     177F  0872               	movf	___bmul@multiplicand,w
  4270     1780  00F3               	movwf	??___bmul
  4271     1781  0873               	movf	??___bmul,w
  4272     1782  07F4               	addwf	___bmul@product,f
  4273     1783                     l2315:
  4274     1783  1003               	clrc
  4275     1784  0DF2               	rlf	___bmul@multiplicand,f
  4276     1785                     l2317:
  4277     1785  1003               	clrc
  4278     1786  0CF5               	rrf	___bmul@multiplier,f
  4279     1787  0875               	movf	___bmul@multiplier,w
  4280     1788  1D03               	btfss	3,2
  4281     1789  2F8B               	goto	u2841
  4282     178A  2F8C               	goto	u2840
  4283     178B                     u2841:
  4284     178B  2F7B               	goto	l2311
  4285     178C                     u2840:
  4286     178C                     l2319:
  4287     178C  0874               	movf	___bmul@product,w
  4288     178D                     l416:
  4289     178D  0008               	return
  4290     178E                     __end_of___bmul:
  4291                           
  4292                           	psect	text7
  4293     0A2E                     __ptext7:	
  4294 ;; *************** function ___xxtofl *****************
  4295 ;; Defined at:
  4296 ;;		line 10 in file "D:\Arquivos Programas\Microchip\pic\sources\c90\common\xxtofl.c"
  4297 ;; Parameters:    Size  Location     Type
  4298 ;;  sign            1    wreg     unsigned char 
  4299 ;;  val             4    2[COMMON] long 
  4300 ;; Auto vars:     Size  Location     Type
  4301 ;;  sign            1    0[BANK0 ] unsigned char 
  4302 ;;  arg             4    2[BANK0 ] unsigned long 
  4303 ;;  exp             1    1[BANK0 ] unsigned char 
  4304 ;; Return value:  Size  Location     Type
  4305 ;;                  4    2[COMMON] unsigned char 
  4306 ;; Registers used:
  4307 ;;		wreg, status,2, status,0
  4308 ;; Tracked objects:
  4309 ;;		On entry : 0/0
  4310 ;;		On exit  : 0/0
  4311 ;;		Unchanged: 0/0
  4312 ;; Data sizes:     COMMON   BANK0   BANK1   BANK3   BANK2
  4313 ;;      Params:         4       0       0       0       0
  4314 ;;      Locals:         0       6       0       0       0
  4315 ;;      Temps:          4       0       0       0       0
  4316 ;;      Totals:         8       6       0       0       0
  4317 ;;Total ram usage:       14 bytes
  4318 ;; Hardware stack levels used: 1
  4319 ;; Hardware stack levels required when called: 1
  4320 ;; This function calls:
  4321 ;;		Nothing
  4322 ;; This function is called by:
  4323 ;;		_main
  4324 ;; This function uses a non-reentrant model
  4325 ;;
  4326                           
  4327     0A2E                     ___xxtofl:	
  4328                           ;psect for function ___xxtofl
  4329                           
  4330                           
  4331                           ;incstack = 0
  4332                           ; Regs used in ___xxtofl: [wreg+status,2+status,0]
  4333                           ;___xxtofl@sign stored from wreg
  4334     0A2E  1283               	bcf	3,5	;RP0=0, select bank0
  4335     0A2F  1303               	bcf	3,6	;RP1=0, select bank0
  4336     0A30  00A0               	movwf	___xxtofl@sign
  4337     0A31                     l2855:
  4338     0A31  0820               	movf	___xxtofl@sign,w
  4339     0A32  1903               	btfsc	3,2
  4340     0A33  2A35               	goto	u4011
  4341     0A34  2A36               	goto	u4010
  4342     0A35                     u4011:
  4343     0A35  2A4A               	goto	l2861
  4344     0A36                     u4010:
  4345     0A36                     l2857:
  4346     0A36  1FF5               	btfss	___xxtofl@val+3,7
  4347     0A37  2A39               	goto	u4021
  4348     0A38  2A3A               	goto	u4020
  4349     0A39                     u4021:
  4350     0A39  2A4A               	goto	l2861
  4351     0A3A                     u4020:
  4352     0A3A                     l2859:
  4353     0A3A  0972               	comf	___xxtofl@val,w
  4354     0A3B  00A2               	movwf	___xxtofl@arg
  4355     0A3C  0973               	comf	___xxtofl@val+1,w
  4356     0A3D  00A3               	movwf	___xxtofl@arg+1
  4357     0A3E  0974               	comf	___xxtofl@val+2,w
  4358     0A3F  00A4               	movwf	___xxtofl@arg+2
  4359     0A40  0975               	comf	___xxtofl@val+3,w
  4360     0A41  00A5               	movwf	___xxtofl@arg+3
  4361     0A42  0AA2               	incf	___xxtofl@arg,f
  4362     0A43  1903               	skipnz
  4363     0A44  0AA3               	incf	___xxtofl@arg+1,f
  4364     0A45  1903               	skipnz
  4365     0A46  0AA4               	incf	___xxtofl@arg+2,f
  4366     0A47  1903               	skipnz
  4367     0A48  0AA5               	incf	___xxtofl@arg+3,f
  4368     0A49  2A52               	goto	l823
  4369     0A4A                     l2861:
  4370     0A4A  0875               	movf	___xxtofl@val+3,w
  4371     0A4B  00A5               	movwf	___xxtofl@arg+3
  4372     0A4C  0874               	movf	___xxtofl@val+2,w
  4373     0A4D  00A4               	movwf	___xxtofl@arg+2
  4374     0A4E  0873               	movf	___xxtofl@val+1,w
  4375     0A4F  00A3               	movwf	___xxtofl@arg+1
  4376     0A50  0872               	movf	___xxtofl@val,w
  4377     0A51  00A2               	movwf	___xxtofl@arg
  4378     0A52                     l823:
  4379     0A52  0875               	movf	___xxtofl@val+3,w
  4380     0A53  0474               	iorwf	___xxtofl@val+2,w
  4381     0A54  0473               	iorwf	___xxtofl@val+1,w
  4382     0A55  0472               	iorwf	___xxtofl@val,w
  4383     0A56  1D03               	skipz
  4384     0A57  2A59               	goto	u4031
  4385     0A58  2A5A               	goto	u4030
  4386     0A59                     u4031:
  4387     0A59  2A63               	goto	l2867
  4388     0A5A                     u4030:
  4389     0A5A                     l2863:
  4390     0A5A  3000               	movlw	0
  4391     0A5B  00F5               	movwf	?___xxtofl+3
  4392     0A5C  3000               	movlw	0
  4393     0A5D  00F4               	movwf	?___xxtofl+2
  4394     0A5E  3000               	movlw	0
  4395     0A5F  00F3               	movwf	?___xxtofl+1
  4396     0A60  3000               	movlw	0
  4397     0A61  00F2               	movwf	?___xxtofl
  4398     0A62  2AE7               	goto	l825
  4399     0A63                     l2867:
  4400     0A63  3096               	movlw	150
  4401     0A64  00A1               	movwf	___xxtofl@exp
  4402     0A65  2A73               	goto	l2871
  4403     0A66                     l2869:
  4404     0A66  3001               	movlw	1
  4405     0A67  00F6               	movwf	??___xxtofl
  4406     0A68  0876               	movf	??___xxtofl,w
  4407     0A69  07A1               	addwf	___xxtofl@exp,f
  4408     0A6A  3001               	movlw	1
  4409     0A6B                     u4045:
  4410     0A6B  1003               	clrc
  4411     0A6C  0CA5               	rrf	___xxtofl@arg+3,f
  4412     0A6D  0CA4               	rrf	___xxtofl@arg+2,f
  4413     0A6E  0CA3               	rrf	___xxtofl@arg+1,f
  4414     0A6F  0CA2               	rrf	___xxtofl@arg,f
  4415     0A70  3EFF               	addlw	-1
  4416     0A71  1D03               	skipz
  4417     0A72  2A6B               	goto	u4045
  4418     0A73                     l2871:
  4419     0A73  30FE               	movlw	254
  4420     0A74  0525               	andwf	___xxtofl@arg+3,w
  4421     0A75  1D03               	btfss	3,2
  4422     0A76  2A78               	goto	u4051
  4423     0A77  2A79               	goto	u4050
  4424     0A78                     u4051:
  4425     0A78  2A66               	goto	l2869
  4426     0A79                     u4050:
  4427     0A79  2A95               	goto	l829
  4428     0A7A                     l2873:
  4429     0A7A  3001               	movlw	1
  4430     0A7B  00F6               	movwf	??___xxtofl
  4431     0A7C  0876               	movf	??___xxtofl,w
  4432     0A7D  07A1               	addwf	___xxtofl@exp,f
  4433     0A7E                     l2875:
  4434     0A7E  3001               	movlw	1
  4435     0A7F  07A2               	addwf	___xxtofl@arg,f
  4436     0A80  3000               	movlw	0
  4437     0A81  1803               	skipnc
  4438     0A82  3001               	movlw	1
  4439     0A83  07A3               	addwf	___xxtofl@arg+1,f
  4440     0A84  3000               	movlw	0
  4441     0A85  1803               	skipnc
  4442     0A86  3001               	movlw	1
  4443     0A87  07A4               	addwf	___xxtofl@arg+2,f
  4444     0A88  3000               	movlw	0
  4445     0A89  1803               	skipnc
  4446     0A8A  3001               	movlw	1
  4447     0A8B  07A5               	addwf	___xxtofl@arg+3,f
  4448     0A8C                     l2877:
  4449     0A8C  3001               	movlw	1
  4450     0A8D                     u4065:
  4451     0A8D  1003               	clrc
  4452     0A8E  0CA5               	rrf	___xxtofl@arg+3,f
  4453     0A8F  0CA4               	rrf	___xxtofl@arg+2,f
  4454     0A90  0CA3               	rrf	___xxtofl@arg+1,f
  4455     0A91  0CA2               	rrf	___xxtofl@arg,f
  4456     0A92  3EFF               	addlw	-1
  4457     0A93  1D03               	skipz
  4458     0A94  2A8D               	goto	u4065
  4459     0A95                     l829:
  4460     0A95  30FF               	movlw	255
  4461     0A96  0525               	andwf	___xxtofl@arg+3,w
  4462     0A97  1D03               	btfss	3,2
  4463     0A98  2A9A               	goto	u4071
  4464     0A99  2A9B               	goto	u4070
  4465     0A9A                     u4071:
  4466     0A9A  2A7A               	goto	l2873
  4467     0A9B                     u4070:
  4468     0A9B  2AA7               	goto	l2881
  4469     0A9C                     l2879:
  4470     0A9C  3001               	movlw	1
  4471     0A9D  02A1               	subwf	___xxtofl@exp,f
  4472     0A9E  3001               	movlw	1
  4473     0A9F  00F6               	movwf	??___xxtofl
  4474     0AA0                     u4085:
  4475     0AA0  1003               	clrc
  4476     0AA1  0DA2               	rlf	___xxtofl@arg,f
  4477     0AA2  0DA3               	rlf	___xxtofl@arg+1,f
  4478     0AA3  0DA4               	rlf	___xxtofl@arg+2,f
  4479     0AA4  0DA5               	rlf	___xxtofl@arg+3,f
  4480     0AA5  0BF6               	decfsz	??___xxtofl,f
  4481     0AA6  2AA0               	goto	u4085
  4482     0AA7                     l2881:
  4483     0AA7  1BA4               	btfsc	___xxtofl@arg+2,7
  4484     0AA8  2AAA               	goto	u4091
  4485     0AA9  2AAB               	goto	u4090
  4486     0AAA                     u4091:
  4487     0AAA  2AB1               	goto	l836
  4488     0AAB                     u4090:
  4489     0AAB                     l2883:
  4490     0AAB  3002               	movlw	2
  4491     0AAC  0221               	subwf	___xxtofl@exp,w
  4492     0AAD  1803               	skipnc
  4493     0AAE  2AB0               	goto	u4101
  4494     0AAF  2AB1               	goto	u4100
  4495     0AB0                     u4101:
  4496     0AB0  2A9C               	goto	l2879
  4497     0AB1                     u4100:
  4498     0AB1                     l836:
  4499     0AB1  1821               	btfsc	___xxtofl@exp,0
  4500     0AB2  2AB4               	goto	u4111
  4501     0AB3  2AB5               	goto	u4110
  4502     0AB4                     u4111:
  4503     0AB4  2ABD               	goto	l837
  4504     0AB5                     u4110:
  4505     0AB5                     l2885:
  4506     0AB5  30FF               	movlw	255
  4507     0AB6  05A2               	andwf	___xxtofl@arg,f
  4508     0AB7  30FF               	movlw	255
  4509     0AB8  05A3               	andwf	___xxtofl@arg+1,f
  4510     0AB9  307F               	movlw	127
  4511     0ABA  05A4               	andwf	___xxtofl@arg+2,f
  4512     0ABB  30FF               	movlw	255
  4513     0ABC  05A5               	andwf	___xxtofl@arg+3,f
  4514     0ABD                     l837:
  4515     0ABD  1003               	clrc
  4516     0ABE  0CA1               	rrf	___xxtofl@exp,f
  4517     0ABF                     l2887:
  4518     0ABF  0821               	movf	___xxtofl@exp,w
  4519     0AC0  00F6               	movwf	??___xxtofl
  4520     0AC1  01F7               	clrf	??___xxtofl+1
  4521     0AC2  01F8               	clrf	??___xxtofl+2
  4522     0AC3  01F9               	clrf	??___xxtofl+3
  4523     0AC4  3018               	movlw	24
  4524     0AC5                     u4125:
  4525     0AC5  1003               	clrc
  4526     0AC6  0DF6               	rlf	??___xxtofl,f
  4527     0AC7  0DF7               	rlf	??___xxtofl+1,f
  4528     0AC8  0DF8               	rlf	??___xxtofl+2,f
  4529     0AC9  0DF9               	rlf	??___xxtofl+3,f
  4530     0ACA                     u4120:
  4531     0ACA  3EFF               	addlw	-1
  4532     0ACB  1D03               	skipz
  4533     0ACC  2AC5               	goto	u4125
  4534     0ACD  0876               	movf	??___xxtofl,w
  4535     0ACE  04A2               	iorwf	___xxtofl@arg,f
  4536     0ACF  0877               	movf	??___xxtofl+1,w
  4537     0AD0  04A3               	iorwf	___xxtofl@arg+1,f
  4538     0AD1  0878               	movf	??___xxtofl+2,w
  4539     0AD2  04A4               	iorwf	___xxtofl@arg+2,f
  4540     0AD3  0879               	movf	??___xxtofl+3,w
  4541     0AD4  04A5               	iorwf	___xxtofl@arg+3,f
  4542     0AD5                     l2889:
  4543     0AD5  0820               	movf	___xxtofl@sign,w
  4544     0AD6  1903               	btfsc	3,2
  4545     0AD7  2AD9               	goto	u4131
  4546     0AD8  2ADA               	goto	u4130
  4547     0AD9                     u4131:
  4548     0AD9  2ADF               	goto	l2895
  4549     0ADA                     u4130:
  4550     0ADA                     l2891:
  4551     0ADA  1FF5               	btfss	___xxtofl@val+3,7
  4552     0ADB  2ADD               	goto	u4141
  4553     0ADC  2ADE               	goto	u4140
  4554     0ADD                     u4141:
  4555     0ADD  2ADF               	goto	l2895
  4556     0ADE                     u4140:
  4557     0ADE                     l2893:
  4558     0ADE  17A5               	bsf	___xxtofl@arg+3,7
  4559     0ADF                     l2895:
  4560     0ADF  0825               	movf	___xxtofl@arg+3,w
  4561     0AE0  00F5               	movwf	?___xxtofl+3
  4562     0AE1  0824               	movf	___xxtofl@arg+2,w
  4563     0AE2  00F4               	movwf	?___xxtofl+2
  4564     0AE3  0823               	movf	___xxtofl@arg+1,w
  4565     0AE4  00F3               	movwf	?___xxtofl+1
  4566     0AE5  0822               	movf	___xxtofl@arg,w
  4567     0AE6  00F2               	movwf	?___xxtofl
  4568     0AE7                     l825:
  4569     0AE7  0008               	return
  4570     0AE8                     __end_of___xxtofl:
  4571                           
  4572                           	psect	text8
  4573     0CBB                     __ptext8:	
  4574 ;; *************** function ___flmul *****************
  4575 ;; Defined at:
  4576 ;;		line 8 in file "D:\Arquivos Programas\Microchip\pic\sources\c90\common\sprcmul.c"
  4577 ;; Parameters:    Size  Location     Type
  4578 ;;  b               4    0[BANK0 ] unsigned char 
  4579 ;;  a               4    4[BANK0 ] unsigned char 
  4580 ;; Auto vars:     Size  Location     Type
  4581 ;;  prod            4   20[BANK0 ] struct .
  4582 ;;  grs             4   14[BANK0 ] unsigned long 
  4583 ;;  temp            2   24[BANK0 ] struct .
  4584 ;;  bexp            1   19[BANK0 ] unsigned char 
  4585 ;;  aexp            1   18[BANK0 ] unsigned char 
  4586 ;;  sign            1   13[BANK0 ] unsigned char 
  4587 ;; Return value:  Size  Location     Type
  4588 ;;                  4    0[BANK0 ] unsigned char 
  4589 ;; Registers used:
  4590 ;;		wreg, status,2, status,0, btemp+1, pclath, cstack
  4591 ;; Tracked objects:
  4592 ;;		On entry : 0/0
  4593 ;;		On exit  : 0/0
  4594 ;;		Unchanged: 0/0
  4595 ;; Data sizes:     COMMON   BANK0   BANK1   BANK3   BANK2
  4596 ;;      Params:         0       8       0       0       0
  4597 ;;      Locals:         0      13       0       0       0
  4598 ;;      Temps:          0       5       0       0       0
  4599 ;;      Totals:         0      26       0       0       0
  4600 ;;Total ram usage:       26 bytes
  4601 ;; Hardware stack levels used: 1
  4602 ;; Hardware stack levels required when called: 2
  4603 ;; This function calls:
  4604 ;;		__Umul8_16
  4605 ;; This function is called by:
  4606 ;;		_main
  4607 ;; This function uses a non-reentrant model
  4608 ;;
  4609                           
  4610     0CBB                     ___flmul:	
  4611                           ;psect for function ___flmul
  4612                           
  4613     0CBB                     l2715:	
  4614                           ;incstack = 0
  4615                           ; Regs used in ___flmul: [wreg+status,2+status,0+btemp+1+pclath+cstack]
  4616                           
  4617     0CBB  1283               	bcf	3,5	;RP0=0, select bank0
  4618     0CBC  1303               	bcf	3,6	;RP1=0, select bank0
  4619     0CBD  0823               	movf	___flmul@b+3,w
  4620     0CBE  3980               	andlw	128
  4621     0CBF  00AD               	movwf	___flmul@sign
  4622     0CC0                     l2717:
  4623     0CC0  0823               	movf	___flmul@b+3,w
  4624     0CC1  00A8               	movwf	??___flmul
  4625     0CC2  0728               	addwf	??___flmul,w
  4626     0CC3  00B3               	movwf	___flmul@bexp
  4627     0CC4                     l2719:
  4628     0CC4  1FA2               	btfss	___flmul@b+2,7
  4629     0CC5  2CC7               	goto	u3641
  4630     0CC6  2CC8               	goto	u3640
  4631     0CC7                     u3641:
  4632     0CC7  2CC9               	goto	l2723
  4633     0CC8                     u3640:
  4634     0CC8                     l2721:
  4635     0CC8  1433               	bsf	___flmul@bexp,0
  4636     0CC9                     l2723:
  4637     0CC9  0833               	movf	___flmul@bexp,w
  4638     0CCA  1903               	btfsc	3,2
  4639     0CCB  2CCD               	goto	u3651
  4640     0CCC  2CCE               	goto	u3650
  4641     0CCD                     u3651:
  4642     0CCD  2CDD               	goto	l2731
  4643     0CCE                     u3650:
  4644     0CCE                     l2725:
  4645     0CCE  0A33               	incf	___flmul@bexp,w
  4646     0CCF  1D03               	btfss	3,2
  4647     0CD0  2CD2               	goto	u3661
  4648     0CD1  2CD3               	goto	u3660
  4649     0CD2                     u3661:
  4650     0CD2  2CDB               	goto	l2729
  4651     0CD3                     u3660:
  4652     0CD3                     l2727:
  4653     0CD3  3000               	movlw	0
  4654     0CD4  00A3               	movwf	___flmul@b+3
  4655     0CD5  3000               	movlw	0
  4656     0CD6  00A2               	movwf	___flmul@b+2
  4657     0CD7  3000               	movlw	0
  4658     0CD8  00A1               	movwf	___flmul@b+1
  4659     0CD9  3000               	movlw	0
  4660     0CDA  00A0               	movwf	___flmul@b
  4661     0CDB                     l2729:
  4662     0CDB  17A2               	bsf	___flmul@b+2,7
  4663     0CDC  2CE5               	goto	l2733
  4664     0CDD                     l2731:
  4665     0CDD  3000               	movlw	0
  4666     0CDE  00A3               	movwf	___flmul@b+3
  4667     0CDF  3000               	movlw	0
  4668     0CE0  00A2               	movwf	___flmul@b+2
  4669     0CE1  3000               	movlw	0
  4670     0CE2  00A1               	movwf	___flmul@b+1
  4671     0CE3  3000               	movlw	0
  4672     0CE4  00A0               	movwf	___flmul@b
  4673     0CE5                     l2733:
  4674     0CE5  0827               	movf	___flmul@a+3,w
  4675     0CE6  3980               	andlw	128
  4676     0CE7  00A8               	movwf	??___flmul
  4677     0CE8  0828               	movf	??___flmul,w
  4678     0CE9  06AD               	xorwf	___flmul@sign,f
  4679     0CEA                     l2735:
  4680     0CEA  0827               	movf	___flmul@a+3,w
  4681     0CEB  00A8               	movwf	??___flmul
  4682     0CEC  0728               	addwf	??___flmul,w
  4683     0CED  00B2               	movwf	___flmul@aexp
  4684     0CEE                     l2737:
  4685     0CEE  1FA6               	btfss	___flmul@a+2,7
  4686     0CEF  2CF1               	goto	u3671
  4687     0CF0  2CF2               	goto	u3670
  4688     0CF1                     u3671:
  4689     0CF1  2CF3               	goto	l2741
  4690     0CF2                     u3670:
  4691     0CF2                     l2739:
  4692     0CF2  1432               	bsf	___flmul@aexp,0
  4693     0CF3                     l2741:
  4694     0CF3  0832               	movf	___flmul@aexp,w
  4695     0CF4  1903               	btfsc	3,2
  4696     0CF5  2CF7               	goto	u3681
  4697     0CF6  2CF8               	goto	u3680
  4698     0CF7                     u3681:
  4699     0CF7  2D07               	goto	l2749
  4700     0CF8                     u3680:
  4701     0CF8                     l2743:
  4702     0CF8  0A32               	incf	___flmul@aexp,w
  4703     0CF9  1D03               	btfss	3,2
  4704     0CFA  2CFC               	goto	u3691
  4705     0CFB  2CFD               	goto	u3690
  4706     0CFC                     u3691:
  4707     0CFC  2D05               	goto	l2747
  4708     0CFD                     u3690:
  4709     0CFD                     l2745:
  4710     0CFD  3000               	movlw	0
  4711     0CFE  00A7               	movwf	___flmul@a+3
  4712     0CFF  3000               	movlw	0
  4713     0D00  00A6               	movwf	___flmul@a+2
  4714     0D01  3000               	movlw	0
  4715     0D02  00A5               	movwf	___flmul@a+1
  4716     0D03  3000               	movlw	0
  4717     0D04  00A4               	movwf	___flmul@a
  4718     0D05                     l2747:
  4719     0D05  17A6               	bsf	___flmul@a+2,7
  4720     0D06  2D0F               	goto	l2751
  4721     0D07                     l2749:
  4722     0D07  3000               	movlw	0
  4723     0D08  00A7               	movwf	___flmul@a+3
  4724     0D09  3000               	movlw	0
  4725     0D0A  00A6               	movwf	___flmul@a+2
  4726     0D0B  3000               	movlw	0
  4727     0D0C  00A5               	movwf	___flmul@a+1
  4728     0D0D  3000               	movlw	0
  4729     0D0E  00A4               	movwf	___flmul@a
  4730     0D0F                     l2751:
  4731     0D0F  0832               	movf	___flmul@aexp,w
  4732     0D10  1903               	btfsc	3,2
  4733     0D11  2D13               	goto	u3701
  4734     0D12  2D14               	goto	u3700
  4735     0D13                     u3701:
  4736     0D13  2D19               	goto	l2755
  4737     0D14                     u3700:
  4738     0D14                     l2753:
  4739     0D14  0833               	movf	___flmul@bexp,w
  4740     0D15  1D03               	btfss	3,2
  4741     0D16  2D18               	goto	u3711
  4742     0D17  2D19               	goto	u3710
  4743     0D18                     u3711:
  4744     0D18  2D22               	goto	l2759
  4745     0D19                     u3710:
  4746     0D19                     l2755:
  4747     0D19  3000               	movlw	0
  4748     0D1A  00A3               	movwf	?___flmul+3
  4749     0D1B  3000               	movlw	0
  4750     0D1C  00A2               	movwf	?___flmul+2
  4751     0D1D  3000               	movlw	0
  4752     0D1E  00A1               	movwf	?___flmul+1
  4753     0D1F  3000               	movlw	0
  4754     0D20  00A0               	movwf	?___flmul
  4755     0D21  2FFF               	goto	l779
  4756     0D22                     l2759:
  4757     0D22  0820               	movf	___flmul@b,w
  4758     0D23  00F2               	movwf	__Umul8_16@multiplicand
  4759     0D24  0826               	movf	___flmul@a+2,w
  4760     0D25  120A  118A  27D5  120A  158A  	fcall	__Umul8_16
  4761     0D2A  0873               	movf	?__Umul8_16+1,w
  4762     0D2B  1283               	bcf	3,5	;RP0=0, select bank0
  4763     0D2C  1303               	bcf	3,6	;RP1=0, select bank0
  4764     0D2D  00B9               	movwf	___flmul@temp+1
  4765     0D2E  0872               	movf	?__Umul8_16,w
  4766     0D2F  00B8               	movwf	___flmul@temp
  4767     0D30                     l2761:
  4768     0D30  0838               	movf	___flmul@temp,w
  4769     0D31  00A8               	movwf	??___flmul
  4770     0D32  01A9               	clrf	??___flmul+1
  4771     0D33  01AA               	clrf	??___flmul+2
  4772     0D34  01AB               	clrf	??___flmul+3
  4773     0D35  082B               	movf	??___flmul+3,w
  4774     0D36  00B1               	movwf	___flmul@grs+3
  4775     0D37  082A               	movf	??___flmul+2,w
  4776     0D38  00B0               	movwf	___flmul@grs+2
  4777     0D39  0829               	movf	??___flmul+1,w
  4778     0D3A  00AF               	movwf	___flmul@grs+1
  4779     0D3B  0828               	movf	??___flmul,w
  4780     0D3C  00AE               	movwf	___flmul@grs
  4781     0D3D                     l2763:
  4782     0D3D  0839               	movf	___flmul@temp+1,w
  4783     0D3E  00A8               	movwf	??___flmul
  4784     0D3F  01A9               	clrf	??___flmul+1
  4785     0D40  01AA               	clrf	??___flmul+2
  4786     0D41  01AB               	clrf	??___flmul+3
  4787     0D42  082B               	movf	??___flmul+3,w
  4788     0D43  00B7               	movwf	___flmul@prod+3
  4789     0D44  082A               	movf	??___flmul+2,w
  4790     0D45  00B6               	movwf	___flmul@prod+2
  4791     0D46  0829               	movf	??___flmul+1,w
  4792     0D47  00B5               	movwf	___flmul@prod+1
  4793     0D48  0828               	movf	??___flmul,w
  4794     0D49  00B4               	movwf	___flmul@prod
  4795     0D4A  0821               	movf	___flmul@b+1,w
  4796     0D4B  00F2               	movwf	__Umul8_16@multiplicand
  4797     0D4C  0825               	movf	___flmul@a+1,w
  4798     0D4D  120A  118A  27D5  120A  158A  	fcall	__Umul8_16
  4799     0D52  0873               	movf	?__Umul8_16+1,w
  4800     0D53  1283               	bcf	3,5	;RP0=0, select bank0
  4801     0D54  1303               	bcf	3,6	;RP1=0, select bank0
  4802     0D55  00B9               	movwf	___flmul@temp+1
  4803     0D56  0872               	movf	?__Umul8_16,w
  4804     0D57  00B8               	movwf	___flmul@temp
  4805     0D58                     l2765:
  4806     0D58  0838               	movf	___flmul@temp,w
  4807     0D59  00A8               	movwf	??___flmul
  4808     0D5A  01A9               	clrf	??___flmul+1
  4809     0D5B  01AA               	clrf	??___flmul+2
  4810     0D5C  01AB               	clrf	??___flmul+3
  4811     0D5D  0828               	movf	??___flmul,w
  4812     0D5E  07AE               	addwf	___flmul@grs,f
  4813     0D5F  0829               	movf	??___flmul+1,w
  4814     0D60  1103               	clrz
  4815     0D61  1803               	skipnc
  4816     0D62  3E01               	addlw	1
  4817     0D63  1903               	skipnz
  4818     0D64  2D66               	goto	u3721
  4819     0D65  07AF               	addwf	___flmul@grs+1,f
  4820     0D66                     u3721:
  4821     0D66  082A               	movf	??___flmul+2,w
  4822     0D67  1103               	clrz
  4823     0D68  1803               	skipnc
  4824     0D69  3E01               	addlw	1
  4825     0D6A  1903               	skipnz
  4826     0D6B  2D6D               	goto	u3722
  4827     0D6C  07B0               	addwf	___flmul@grs+2,f
  4828     0D6D                     u3722:
  4829     0D6D  082B               	movf	??___flmul+3,w
  4830     0D6E  1103               	clrz
  4831     0D6F  1803               	skipnc
  4832     0D70  3E01               	addlw	1
  4833     0D71  1903               	skipnz
  4834     0D72  2D74               	goto	u3723
  4835     0D73  07B1               	addwf	___flmul@grs+3,f
  4836     0D74                     u3723:
  4837     0D74                     l2767:
  4838     0D74  0839               	movf	___flmul@temp+1,w
  4839     0D75  00A8               	movwf	??___flmul
  4840     0D76  01A9               	clrf	??___flmul+1
  4841     0D77  01AA               	clrf	??___flmul+2
  4842     0D78  01AB               	clrf	??___flmul+3
  4843     0D79  0828               	movf	??___flmul,w
  4844     0D7A  07B4               	addwf	___flmul@prod,f
  4845     0D7B  0829               	movf	??___flmul+1,w
  4846     0D7C  1103               	clrz
  4847     0D7D  1803               	skipnc
  4848     0D7E  3E01               	addlw	1
  4849     0D7F  1903               	skipnz
  4850     0D80  2D82               	goto	u3731
  4851     0D81  07B5               	addwf	___flmul@prod+1,f
  4852     0D82                     u3731:
  4853     0D82  082A               	movf	??___flmul+2,w
  4854     0D83  1103               	clrz
  4855     0D84  1803               	skipnc
  4856     0D85  3E01               	addlw	1
  4857     0D86  1903               	skipnz
  4858     0D87  2D89               	goto	u3732
  4859     0D88  07B6               	addwf	___flmul@prod+2,f
  4860     0D89                     u3732:
  4861     0D89  082B               	movf	??___flmul+3,w
  4862     0D8A  1103               	clrz
  4863     0D8B  1803               	skipnc
  4864     0D8C  3E01               	addlw	1
  4865     0D8D  1903               	skipnz
  4866     0D8E  2D90               	goto	u3733
  4867     0D8F  07B7               	addwf	___flmul@prod+3,f
  4868     0D90                     u3733:
  4869     0D90  0822               	movf	___flmul@b+2,w
  4870     0D91  00F2               	movwf	__Umul8_16@multiplicand
  4871     0D92  0824               	movf	___flmul@a,w
  4872     0D93  120A  118A  27D5  120A  158A  	fcall	__Umul8_16
  4873     0D98  0873               	movf	?__Umul8_16+1,w
  4874     0D99  1283               	bcf	3,5	;RP0=0, select bank0
  4875     0D9A  1303               	bcf	3,6	;RP1=0, select bank0
  4876     0D9B  00B9               	movwf	___flmul@temp+1
  4877     0D9C  0872               	movf	?__Umul8_16,w
  4878     0D9D  00B8               	movwf	___flmul@temp
  4879     0D9E                     l2769:
  4880     0D9E  0838               	movf	___flmul@temp,w
  4881     0D9F  00A8               	movwf	??___flmul
  4882     0DA0  01A9               	clrf	??___flmul+1
  4883     0DA1  01AA               	clrf	??___flmul+2
  4884     0DA2  01AB               	clrf	??___flmul+3
  4885     0DA3  0828               	movf	??___flmul,w
  4886     0DA4  07AE               	addwf	___flmul@grs,f
  4887     0DA5  0829               	movf	??___flmul+1,w
  4888     0DA6  1103               	clrz
  4889     0DA7  1803               	skipnc
  4890     0DA8  3E01               	addlw	1
  4891     0DA9  1903               	skipnz
  4892     0DAA  2DAC               	goto	u3741
  4893     0DAB  07AF               	addwf	___flmul@grs+1,f
  4894     0DAC                     u3741:
  4895     0DAC  082A               	movf	??___flmul+2,w
  4896     0DAD  1103               	clrz
  4897     0DAE  1803               	skipnc
  4898     0DAF  3E01               	addlw	1
  4899     0DB0  1903               	skipnz
  4900     0DB1  2DB3               	goto	u3742
  4901     0DB2  07B0               	addwf	___flmul@grs+2,f
  4902     0DB3                     u3742:
  4903     0DB3  082B               	movf	??___flmul+3,w
  4904     0DB4  1103               	clrz
  4905     0DB5  1803               	skipnc
  4906     0DB6  3E01               	addlw	1
  4907     0DB7  1903               	skipnz
  4908     0DB8  2DBA               	goto	u3743
  4909     0DB9  07B1               	addwf	___flmul@grs+3,f
  4910     0DBA                     u3743:
  4911     0DBA                     l2771:
  4912     0DBA  0839               	movf	___flmul@temp+1,w
  4913     0DBB  00A8               	movwf	??___flmul
  4914     0DBC  01A9               	clrf	??___flmul+1
  4915     0DBD  01AA               	clrf	??___flmul+2
  4916     0DBE  01AB               	clrf	??___flmul+3
  4917     0DBF  0828               	movf	??___flmul,w
  4918     0DC0  07B4               	addwf	___flmul@prod,f
  4919     0DC1  0829               	movf	??___flmul+1,w
  4920     0DC2  1103               	clrz
  4921     0DC3  1803               	skipnc
  4922     0DC4  3E01               	addlw	1
  4923     0DC5  1903               	skipnz
  4924     0DC6  2DC8               	goto	u3751
  4925     0DC7  07B5               	addwf	___flmul@prod+1,f
  4926     0DC8                     u3751:
  4927     0DC8  082A               	movf	??___flmul+2,w
  4928     0DC9  1103               	clrz
  4929     0DCA  1803               	skipnc
  4930     0DCB  3E01               	addlw	1
  4931     0DCC  1903               	skipnz
  4932     0DCD  2DCF               	goto	u3752
  4933     0DCE  07B6               	addwf	___flmul@prod+2,f
  4934     0DCF                     u3752:
  4935     0DCF  082B               	movf	??___flmul+3,w
  4936     0DD0  1103               	clrz
  4937     0DD1  1803               	skipnc
  4938     0DD2  3E01               	addlw	1
  4939     0DD3  1903               	skipnz
  4940     0DD4  2DD6               	goto	u3753
  4941     0DD5  07B7               	addwf	___flmul@prod+3,f
  4942     0DD6                     u3753:
  4943     0DD6                     l2773:
  4944     0DD6  3008               	movlw	8
  4945     0DD7  00A8               	movwf	??___flmul
  4946     0DD8                     u3765:
  4947     0DD8  1003               	clrc
  4948     0DD9  0DAE               	rlf	___flmul@grs,f
  4949     0DDA  0DAF               	rlf	___flmul@grs+1,f
  4950     0DDB  0DB0               	rlf	___flmul@grs+2,f
  4951     0DDC  0DB1               	rlf	___flmul@grs+3,f
  4952     0DDD  0BA8               	decfsz	??___flmul,f
  4953     0DDE  2DD8               	goto	u3765
  4954     0DDF                     l2775:
  4955     0DDF  0821               	movf	___flmul@b+1,w
  4956     0DE0  00F2               	movwf	__Umul8_16@multiplicand
  4957     0DE1  0824               	movf	___flmul@a,w
  4958     0DE2  120A  118A  27D5  120A  158A  	fcall	__Umul8_16
  4959     0DE7  0873               	movf	?__Umul8_16+1,w
  4960     0DE8  1283               	bcf	3,5	;RP0=0, select bank0
  4961     0DE9  1303               	bcf	3,6	;RP1=0, select bank0
  4962     0DEA  00B9               	movwf	___flmul@temp+1
  4963     0DEB  0872               	movf	?__Umul8_16,w
  4964     0DEC  00B8               	movwf	___flmul@temp
  4965     0DED                     l2777:
  4966     0DED  0838               	movf	___flmul@temp,w
  4967     0DEE  00A8               	movwf	??___flmul
  4968     0DEF  0839               	movf	___flmul@temp+1,w
  4969     0DF0  00A9               	movwf	??___flmul+1
  4970     0DF1  01AA               	clrf	??___flmul+2
  4971     0DF2  01AB               	clrf	??___flmul+3
  4972     0DF3  0828               	movf	??___flmul,w
  4973     0DF4  07AE               	addwf	___flmul@grs,f
  4974     0DF5  0829               	movf	??___flmul+1,w
  4975     0DF6  1103               	clrz
  4976     0DF7  1803               	skipnc
  4977     0DF8  3E01               	addlw	1
  4978     0DF9  1903               	skipnz
  4979     0DFA  2DFC               	goto	u3771
  4980     0DFB  07AF               	addwf	___flmul@grs+1,f
  4981     0DFC                     u3771:
  4982     0DFC  082A               	movf	??___flmul+2,w
  4983     0DFD  1103               	clrz
  4984     0DFE  1803               	skipnc
  4985     0DFF  3E01               	addlw	1
  4986     0E00  1903               	skipnz
  4987     0E01  2E03               	goto	u3772
  4988     0E02  07B0               	addwf	___flmul@grs+2,f
  4989     0E03                     u3772:
  4990     0E03  082B               	movf	??___flmul+3,w
  4991     0E04  1103               	clrz
  4992     0E05  1803               	skipnc
  4993     0E06  3E01               	addlw	1
  4994     0E07  1903               	skipnz
  4995     0E08  2E0A               	goto	u3773
  4996     0E09  07B1               	addwf	___flmul@grs+3,f
  4997     0E0A                     u3773:
  4998     0E0A                     l2779:
  4999     0E0A  0820               	movf	___flmul@b,w
  5000     0E0B  00F2               	movwf	__Umul8_16@multiplicand
  5001     0E0C  0825               	movf	___flmul@a+1,w
  5002     0E0D  120A  118A  27D5  120A  158A  	fcall	__Umul8_16
  5003     0E12  0873               	movf	?__Umul8_16+1,w
  5004     0E13  1283               	bcf	3,5	;RP0=0, select bank0
  5005     0E14  1303               	bcf	3,6	;RP1=0, select bank0
  5006     0E15  00B9               	movwf	___flmul@temp+1
  5007     0E16  0872               	movf	?__Umul8_16,w
  5008     0E17  00B8               	movwf	___flmul@temp
  5009     0E18                     l2781:
  5010     0E18  0838               	movf	___flmul@temp,w
  5011     0E19  00A8               	movwf	??___flmul
  5012     0E1A  0839               	movf	___flmul@temp+1,w
  5013     0E1B  00A9               	movwf	??___flmul+1
  5014     0E1C  01AA               	clrf	??___flmul+2
  5015     0E1D  01AB               	clrf	??___flmul+3
  5016     0E1E  0828               	movf	??___flmul,w
  5017     0E1F  07AE               	addwf	___flmul@grs,f
  5018     0E20  0829               	movf	??___flmul+1,w
  5019     0E21  1103               	clrz
  5020     0E22  1803               	skipnc
  5021     0E23  3E01               	addlw	1
  5022     0E24  1903               	skipnz
  5023     0E25  2E27               	goto	u3781
  5024     0E26  07AF               	addwf	___flmul@grs+1,f
  5025     0E27                     u3781:
  5026     0E27  082A               	movf	??___flmul+2,w
  5027     0E28  1103               	clrz
  5028     0E29  1803               	skipnc
  5029     0E2A  3E01               	addlw	1
  5030     0E2B  1903               	skipnz
  5031     0E2C  2E2E               	goto	u3782
  5032     0E2D  07B0               	addwf	___flmul@grs+2,f
  5033     0E2E                     u3782:
  5034     0E2E  082B               	movf	??___flmul+3,w
  5035     0E2F  1103               	clrz
  5036     0E30  1803               	skipnc
  5037     0E31  3E01               	addlw	1
  5038     0E32  1903               	skipnz
  5039     0E33  2E35               	goto	u3783
  5040     0E34  07B1               	addwf	___flmul@grs+3,f
  5041     0E35                     u3783:
  5042     0E35                     l2783:
  5043     0E35  3008               	movlw	8
  5044     0E36  00A8               	movwf	??___flmul
  5045     0E37                     u3795:
  5046     0E37  1003               	clrc
  5047     0E38  0DAE               	rlf	___flmul@grs,f
  5048     0E39  0DAF               	rlf	___flmul@grs+1,f
  5049     0E3A  0DB0               	rlf	___flmul@grs+2,f
  5050     0E3B  0DB1               	rlf	___flmul@grs+3,f
  5051     0E3C  0BA8               	decfsz	??___flmul,f
  5052     0E3D  2E37               	goto	u3795
  5053     0E3E  0820               	movf	___flmul@b,w
  5054     0E3F  00F2               	movwf	__Umul8_16@multiplicand
  5055     0E40  0824               	movf	___flmul@a,w
  5056     0E41  120A  118A  27D5  120A  158A  	fcall	__Umul8_16
  5057     0E46  0873               	movf	?__Umul8_16+1,w
  5058     0E47  1283               	bcf	3,5	;RP0=0, select bank0
  5059     0E48  1303               	bcf	3,6	;RP1=0, select bank0
  5060     0E49  00B9               	movwf	___flmul@temp+1
  5061     0E4A  0872               	movf	?__Umul8_16,w
  5062     0E4B  00B8               	movwf	___flmul@temp
  5063     0E4C                     l2785:
  5064     0E4C  0838               	movf	___flmul@temp,w
  5065     0E4D  00A8               	movwf	??___flmul
  5066     0E4E  0839               	movf	___flmul@temp+1,w
  5067     0E4F  00A9               	movwf	??___flmul+1
  5068     0E50  01AA               	clrf	??___flmul+2
  5069     0E51  01AB               	clrf	??___flmul+3
  5070     0E52  0828               	movf	??___flmul,w
  5071     0E53  07AE               	addwf	___flmul@grs,f
  5072     0E54  0829               	movf	??___flmul+1,w
  5073     0E55  1103               	clrz
  5074     0E56  1803               	skipnc
  5075     0E57  3E01               	addlw	1
  5076     0E58  1903               	skipnz
  5077     0E59  2E5B               	goto	u3801
  5078     0E5A  07AF               	addwf	___flmul@grs+1,f
  5079     0E5B                     u3801:
  5080     0E5B  082A               	movf	??___flmul+2,w
  5081     0E5C  1103               	clrz
  5082     0E5D  1803               	skipnc
  5083     0E5E  3E01               	addlw	1
  5084     0E5F  1903               	skipnz
  5085     0E60  2E62               	goto	u3802
  5086     0E61  07B0               	addwf	___flmul@grs+2,f
  5087     0E62                     u3802:
  5088     0E62  082B               	movf	??___flmul+3,w
  5089     0E63  1103               	clrz
  5090     0E64  1803               	skipnc
  5091     0E65  3E01               	addlw	1
  5092     0E66  1903               	skipnz
  5093     0E67  2E69               	goto	u3803
  5094     0E68  07B1               	addwf	___flmul@grs+3,f
  5095     0E69                     u3803:
  5096     0E69                     l2787:
  5097     0E69  0821               	movf	___flmul@b+1,w
  5098     0E6A  00F2               	movwf	__Umul8_16@multiplicand
  5099     0E6B  0826               	movf	___flmul@a+2,w
  5100     0E6C  120A  118A  27D5  120A  158A  	fcall	__Umul8_16
  5101     0E71  0873               	movf	?__Umul8_16+1,w
  5102     0E72  1283               	bcf	3,5	;RP0=0, select bank0
  5103     0E73  1303               	bcf	3,6	;RP1=0, select bank0
  5104     0E74  00B9               	movwf	___flmul@temp+1
  5105     0E75  0872               	movf	?__Umul8_16,w
  5106     0E76  00B8               	movwf	___flmul@temp
  5107     0E77  0838               	movf	___flmul@temp,w
  5108     0E78  00A8               	movwf	??___flmul
  5109     0E79  0839               	movf	___flmul@temp+1,w
  5110     0E7A  00A9               	movwf	??___flmul+1
  5111     0E7B  01AA               	clrf	??___flmul+2
  5112     0E7C  01AB               	clrf	??___flmul+3
  5113     0E7D  0828               	movf	??___flmul,w
  5114     0E7E  07B4               	addwf	___flmul@prod,f
  5115     0E7F  0829               	movf	??___flmul+1,w
  5116     0E80  1103               	clrz
  5117     0E81  1803               	skipnc
  5118     0E82  3E01               	addlw	1
  5119     0E83  1903               	skipnz
  5120     0E84  2E86               	goto	u3811
  5121     0E85  07B5               	addwf	___flmul@prod+1,f
  5122     0E86                     u3811:
  5123     0E86  082A               	movf	??___flmul+2,w
  5124     0E87  1103               	clrz
  5125     0E88  1803               	skipnc
  5126     0E89  3E01               	addlw	1
  5127     0E8A  1903               	skipnz
  5128     0E8B  2E8D               	goto	u3812
  5129     0E8C  07B6               	addwf	___flmul@prod+2,f
  5130     0E8D                     u3812:
  5131     0E8D  082B               	movf	??___flmul+3,w
  5132     0E8E  1103               	clrz
  5133     0E8F  1803               	skipnc
  5134     0E90  3E01               	addlw	1
  5135     0E91  1903               	skipnz
  5136     0E92  2E94               	goto	u3813
  5137     0E93  07B7               	addwf	___flmul@prod+3,f
  5138     0E94                     u3813:
  5139     0E94                     l2789:
  5140     0E94  0822               	movf	___flmul@b+2,w
  5141     0E95  00F2               	movwf	__Umul8_16@multiplicand
  5142     0E96  0825               	movf	___flmul@a+1,w
  5143     0E97  120A  118A  27D5  120A  158A  	fcall	__Umul8_16
  5144     0E9C  0873               	movf	?__Umul8_16+1,w
  5145     0E9D  1283               	bcf	3,5	;RP0=0, select bank0
  5146     0E9E  1303               	bcf	3,6	;RP1=0, select bank0
  5147     0E9F  00B9               	movwf	___flmul@temp+1
  5148     0EA0  0872               	movf	?__Umul8_16,w
  5149     0EA1  00B8               	movwf	___flmul@temp
  5150     0EA2                     l2791:
  5151     0EA2  0838               	movf	___flmul@temp,w
  5152     0EA3  00A8               	movwf	??___flmul
  5153     0EA4  0839               	movf	___flmul@temp+1,w
  5154     0EA5  00A9               	movwf	??___flmul+1
  5155     0EA6  01AA               	clrf	??___flmul+2
  5156     0EA7  01AB               	clrf	??___flmul+3
  5157     0EA8  0828               	movf	??___flmul,w
  5158     0EA9  07B4               	addwf	___flmul@prod,f
  5159     0EAA  0829               	movf	??___flmul+1,w
  5160     0EAB  1103               	clrz
  5161     0EAC  1803               	skipnc
  5162     0EAD  3E01               	addlw	1
  5163     0EAE  1903               	skipnz
  5164     0EAF  2EB1               	goto	u3821
  5165     0EB0  07B5               	addwf	___flmul@prod+1,f
  5166     0EB1                     u3821:
  5167     0EB1  082A               	movf	??___flmul+2,w
  5168     0EB2  1103               	clrz
  5169     0EB3  1803               	skipnc
  5170     0EB4  3E01               	addlw	1
  5171     0EB5  1903               	skipnz
  5172     0EB6  2EB8               	goto	u3822
  5173     0EB7  07B6               	addwf	___flmul@prod+2,f
  5174     0EB8                     u3822:
  5175     0EB8  082B               	movf	??___flmul+3,w
  5176     0EB9  1103               	clrz
  5177     0EBA  1803               	skipnc
  5178     0EBB  3E01               	addlw	1
  5179     0EBC  1903               	skipnz
  5180     0EBD  2EBF               	goto	u3823
  5181     0EBE  07B7               	addwf	___flmul@prod+3,f
  5182     0EBF                     u3823:
  5183     0EBF  0822               	movf	___flmul@b+2,w
  5184     0EC0  00F2               	movwf	__Umul8_16@multiplicand
  5185     0EC1  0826               	movf	___flmul@a+2,w
  5186     0EC2  120A  118A  27D5  120A  158A  	fcall	__Umul8_16
  5187     0EC7  0873               	movf	?__Umul8_16+1,w
  5188     0EC8  1283               	bcf	3,5	;RP0=0, select bank0
  5189     0EC9  1303               	bcf	3,6	;RP1=0, select bank0
  5190     0ECA  00B9               	movwf	___flmul@temp+1
  5191     0ECB  0872               	movf	?__Umul8_16,w
  5192     0ECC  00B8               	movwf	___flmul@temp
  5193     0ECD                     l2793:
  5194     0ECD  0838               	movf	___flmul@temp,w
  5195     0ECE  00A8               	movwf	??___flmul
  5196     0ECF  0839               	movf	___flmul@temp+1,w
  5197     0ED0  00A9               	movwf	??___flmul+1
  5198     0ED1  01AA               	clrf	??___flmul+2
  5199     0ED2  01AB               	clrf	??___flmul+3
  5200     0ED3  3008               	movlw	8
  5201     0ED4                     u3835:
  5202     0ED4  1003               	clrc
  5203     0ED5  0DA8               	rlf	??___flmul,f
  5204     0ED6  0DA9               	rlf	??___flmul+1,f
  5205     0ED7  0DAA               	rlf	??___flmul+2,f
  5206     0ED8  0DAB               	rlf	??___flmul+3,f
  5207     0ED9                     u3830:
  5208     0ED9  3EFF               	addlw	-1
  5209     0EDA  1D03               	skipz
  5210     0EDB  2ED4               	goto	u3835
  5211     0EDC  0828               	movf	??___flmul,w
  5212     0EDD  07B4               	addwf	___flmul@prod,f
  5213     0EDE  0829               	movf	??___flmul+1,w
  5214     0EDF  1103               	clrz
  5215     0EE0  1803               	skipnc
  5216     0EE1  3E01               	addlw	1
  5217     0EE2  1903               	skipnz
  5218     0EE3  2EE5               	goto	u3841
  5219     0EE4  07B5               	addwf	___flmul@prod+1,f
  5220     0EE5                     u3841:
  5221     0EE5  082A               	movf	??___flmul+2,w
  5222     0EE6  1103               	clrz
  5223     0EE7  1803               	skipnc
  5224     0EE8  3E01               	addlw	1
  5225     0EE9  1903               	skipnz
  5226     0EEA  2EEC               	goto	u3842
  5227     0EEB  07B6               	addwf	___flmul@prod+2,f
  5228     0EEC                     u3842:
  5229     0EEC  082B               	movf	??___flmul+3,w
  5230     0EED  1103               	clrz
  5231     0EEE  1803               	skipnc
  5232     0EEF  3E01               	addlw	1
  5233     0EF0  1903               	skipnz
  5234     0EF1  2EF3               	goto	u3843
  5235     0EF2  07B7               	addwf	___flmul@prod+3,f
  5236     0EF3                     u3843:
  5237     0EF3                     l2795:
  5238     0EF3  082E               	movf	___flmul@grs,w
  5239     0EF4  00A8               	movwf	??___flmul
  5240     0EF5  082F               	movf	___flmul@grs+1,w
  5241     0EF6  00A9               	movwf	??___flmul+1
  5242     0EF7  0830               	movf	___flmul@grs+2,w
  5243     0EF8  00AA               	movwf	??___flmul+2
  5244     0EF9  0831               	movf	___flmul@grs+3,w
  5245     0EFA  00AB               	movwf	??___flmul+3
  5246     0EFB  3018               	movlw	24
  5247     0EFC                     u3855:
  5248     0EFC  1003               	clrc
  5249     0EFD  0CAB               	rrf	??___flmul+3,f
  5250     0EFE  0CAA               	rrf	??___flmul+2,f
  5251     0EFF  0CA9               	rrf	??___flmul+1,f
  5252     0F00  0CA8               	rrf	??___flmul,f
  5253     0F01                     u3850:
  5254     0F01  3EFF               	addlw	-1
  5255     0F02  1D03               	skipz
  5256     0F03  2EFC               	goto	u3855
  5257     0F04  0828               	movf	??___flmul,w
  5258     0F05  07B4               	addwf	___flmul@prod,f
  5259     0F06  0829               	movf	??___flmul+1,w
  5260     0F07  1103               	clrz
  5261     0F08  1803               	skipnc
  5262     0F09  3E01               	addlw	1
  5263     0F0A  1903               	skipnz
  5264     0F0B  2F0D               	goto	u3861
  5265     0F0C  07B5               	addwf	___flmul@prod+1,f
  5266     0F0D                     u3861:
  5267     0F0D  082A               	movf	??___flmul+2,w
  5268     0F0E  1103               	clrz
  5269     0F0F  1803               	skipnc
  5270     0F10  3E01               	addlw	1
  5271     0F11  1903               	skipnz
  5272     0F12  2F14               	goto	u3862
  5273     0F13  07B6               	addwf	___flmul@prod+2,f
  5274     0F14                     u3862:
  5275     0F14  082B               	movf	??___flmul+3,w
  5276     0F15  1103               	clrz
  5277     0F16  1803               	skipnc
  5278     0F17  3E01               	addlw	1
  5279     0F18  1903               	skipnz
  5280     0F19  2F1B               	goto	u3863
  5281     0F1A  07B7               	addwf	___flmul@prod+3,f
  5282     0F1B                     u3863:
  5283     0F1B                     l2797:
  5284     0F1B  3008               	movlw	8
  5285     0F1C  00A8               	movwf	??___flmul
  5286     0F1D                     u3875:
  5287     0F1D  1003               	clrc
  5288     0F1E  0DAE               	rlf	___flmul@grs,f
  5289     0F1F  0DAF               	rlf	___flmul@grs+1,f
  5290     0F20  0DB0               	rlf	___flmul@grs+2,f
  5291     0F21  0DB1               	rlf	___flmul@grs+3,f
  5292     0F22  0BA8               	decfsz	??___flmul,f
  5293     0F23  2F1D               	goto	u3875
  5294     0F24                     l2799:
  5295     0F24  0833               	movf	___flmul@bexp,w
  5296     0F25  0732               	addwf	___flmul@aexp,w
  5297     0F26  00A8               	movwf	??___flmul
  5298     0F27  01A9               	clrf	??___flmul+1
  5299     0F28  0DA9               	rlf	??___flmul+1,f
  5300     0F29  0828               	movf	??___flmul,w
  5301     0F2A  3E82               	addlw	130
  5302     0F2B  00B8               	movwf	___flmul@temp
  5303     0F2C  0829               	movf	??___flmul+1,w
  5304     0F2D  1803               	skipnc
  5305     0F2E  3E01               	addlw	1
  5306     0F2F  3EFF               	addlw	255
  5307     0F30  00B9               	movwf	___flmul@temp+1
  5308     0F31  2F4F               	goto	l2811
  5309     0F32                     l2801:
  5310     0F32  3001               	movlw	1
  5311     0F33  00A8               	movwf	??___flmul
  5312     0F34                     u3885:
  5313     0F34  1003               	clrc
  5314     0F35  0DB4               	rlf	___flmul@prod,f
  5315     0F36  0DB5               	rlf	___flmul@prod+1,f
  5316     0F37  0DB6               	rlf	___flmul@prod+2,f
  5317     0F38  0DB7               	rlf	___flmul@prod+3,f
  5318     0F39  0BA8               	decfsz	??___flmul,f
  5319     0F3A  2F34               	goto	u3885
  5320     0F3B                     l2803:
  5321     0F3B  1FB1               	btfss	___flmul@grs+3,7
  5322     0F3C  2F3E               	goto	u3891
  5323     0F3D  2F3F               	goto	u3890
  5324     0F3E                     u3891:
  5325     0F3E  2F40               	goto	l2807
  5326     0F3F                     u3890:
  5327     0F3F                     l2805:
  5328     0F3F  1434               	bsf	___flmul@prod,0
  5329     0F40                     l2807:
  5330     0F40  3001               	movlw	1
  5331     0F41  00A8               	movwf	??___flmul
  5332     0F42                     u3905:
  5333     0F42  1003               	clrc
  5334     0F43  0DAE               	rlf	___flmul@grs,f
  5335     0F44  0DAF               	rlf	___flmul@grs+1,f
  5336     0F45  0DB0               	rlf	___flmul@grs+2,f
  5337     0F46  0DB1               	rlf	___flmul@grs+3,f
  5338     0F47  0BA8               	decfsz	??___flmul,f
  5339     0F48  2F42               	goto	u3905
  5340     0F49                     l2809:
  5341     0F49  30FF               	movlw	255
  5342     0F4A  07B8               	addwf	___flmul@temp,f
  5343     0F4B  1803               	skipnc
  5344     0F4C  0AB9               	incf	___flmul@temp+1,f
  5345     0F4D  30FF               	movlw	255
  5346     0F4E  07B9               	addwf	___flmul@temp+1,f
  5347     0F4F                     l2811:
  5348     0F4F  1FB6               	btfss	___flmul@prod+2,7
  5349     0F50  2F52               	goto	u3911
  5350     0F51  2F53               	goto	u3910
  5351     0F52                     u3911:
  5352     0F52  2F32               	goto	l2801
  5353     0F53                     u3910:
  5354     0F53                     l2813:
  5355     0F53  01B2               	clrf	___flmul@aexp
  5356     0F54                     l2815:
  5357     0F54  1FB1               	btfss	___flmul@grs+3,7
  5358     0F55  2F57               	goto	u3921
  5359     0F56  2F58               	goto	u3920
  5360     0F57                     u3921:
  5361     0F57  2F74               	goto	l2823
  5362     0F58                     u3920:
  5363     0F58                     l2817:
  5364     0F58  30FF               	movlw	255
  5365     0F59  052E               	andwf	___flmul@grs,w
  5366     0F5A  00A8               	movwf	??___flmul
  5367     0F5B  30FF               	movlw	255
  5368     0F5C  052F               	andwf	___flmul@grs+1,w
  5369     0F5D  00A9               	movwf	??___flmul+1
  5370     0F5E  30FF               	movlw	255
  5371     0F5F  0530               	andwf	___flmul@grs+2,w
  5372     0F60  00AA               	movwf	??___flmul+2
  5373     0F61  307F               	movlw	127
  5374     0F62  0531               	andwf	___flmul@grs+3,w
  5375     0F63  00AB               	movwf	??___flmul+3
  5376     0F64  082B               	movf	??___flmul+3,w
  5377     0F65  042A               	iorwf	??___flmul+2,w
  5378     0F66  0429               	iorwf	??___flmul+1,w
  5379     0F67  0428               	iorwf	??___flmul,w
  5380     0F68  1903               	skipnz
  5381     0F69  2F6B               	goto	u3931
  5382     0F6A  2F6C               	goto	u3930
  5383     0F6B                     u3931:
  5384     0F6B  2F6F               	goto	l785
  5385     0F6C                     u3930:
  5386     0F6C                     l2819:
  5387     0F6C  01B2               	clrf	___flmul@aexp
  5388     0F6D  0AB2               	incf	___flmul@aexp,f
  5389     0F6E  2F74               	goto	l2823
  5390     0F6F                     l785:
  5391     0F6F  1C34               	btfss	___flmul@prod,0
  5392     0F70  2F72               	goto	u3941
  5393     0F71  2F73               	goto	u3940
  5394     0F72                     u3941:
  5395     0F72  2F74               	goto	l2823
  5396     0F73                     u3940:
  5397     0F73  2F6C               	goto	l2819
  5398     0F74                     l2823:
  5399     0F74  0832               	movf	___flmul@aexp,w
  5400     0F75  1903               	btfsc	3,2
  5401     0F76  2F78               	goto	u3951
  5402     0F77  2F79               	goto	u3950
  5403     0F78                     u3951:
  5404     0F78  2FAA               	goto	l2833
  5405     0F79                     u3950:
  5406     0F79                     l2825:
  5407     0F79  3001               	movlw	1
  5408     0F7A  07B4               	addwf	___flmul@prod,f
  5409     0F7B  3000               	movlw	0
  5410     0F7C  1803               	skipnc
  5411     0F7D  3001               	movlw	1
  5412     0F7E  07B5               	addwf	___flmul@prod+1,f
  5413     0F7F  3000               	movlw	0
  5414     0F80  1803               	skipnc
  5415     0F81  3001               	movlw	1
  5416     0F82  07B6               	addwf	___flmul@prod+2,f
  5417     0F83  3000               	movlw	0
  5418     0F84  1803               	skipnc
  5419     0F85  3001               	movlw	1
  5420     0F86  07B7               	addwf	___flmul@prod+3,f
  5421     0F87                     l2827:
  5422     0F87  1C37               	btfss	___flmul@prod+3,0
  5423     0F88  2F8A               	goto	u3961
  5424     0F89  2F8B               	goto	u3960
  5425     0F8A                     u3961:
  5426     0F8A  2FAA               	goto	l2833
  5427     0F8B                     u3960:
  5428     0F8B                     l2829:
  5429     0F8B  0834               	movf	___flmul@prod,w
  5430     0F8C  00A8               	movwf	??___flmul
  5431     0F8D  0835               	movf	___flmul@prod+1,w
  5432     0F8E  00A9               	movwf	??___flmul+1
  5433     0F8F  0836               	movf	___flmul@prod+2,w
  5434     0F90  00AA               	movwf	??___flmul+2
  5435     0F91  0837               	movf	___flmul@prod+3,w
  5436     0F92  00AB               	movwf	??___flmul+3
  5437     0F93  3001               	movlw	1
  5438     0F94  00AC               	movwf	??___flmul+4
  5439     0F95                     u3975:
  5440     0F95  0D2B               	rlf	??___flmul+3,w
  5441     0F96  0CAB               	rrf	??___flmul+3,f
  5442     0F97  0CAA               	rrf	??___flmul+2,f
  5443     0F98  0CA9               	rrf	??___flmul+1,f
  5444     0F99  0CA8               	rrf	??___flmul,f
  5445     0F9A                     u3970:
  5446     0F9A  0BAC               	decfsz	??___flmul+4,f
  5447     0F9B  2F95               	goto	u3975
  5448     0F9C  082B               	movf	??___flmul+3,w
  5449     0F9D  00B7               	movwf	___flmul@prod+3
  5450     0F9E  082A               	movf	??___flmul+2,w
  5451     0F9F  00B6               	movwf	___flmul@prod+2
  5452     0FA0  0829               	movf	??___flmul+1,w
  5453     0FA1  00B5               	movwf	___flmul@prod+1
  5454     0FA2  0828               	movf	??___flmul,w
  5455     0FA3  00B4               	movwf	___flmul@prod
  5456     0FA4                     l2831:
  5457     0FA4  3001               	movlw	1
  5458     0FA5  07B8               	addwf	___flmul@temp,f
  5459     0FA6  1803               	skipnc
  5460     0FA7  0AB9               	incf	___flmul@temp+1,f
  5461     0FA8  3000               	movlw	0
  5462     0FA9  07B9               	addwf	___flmul@temp+1,f
  5463     0FAA                     l2833:
  5464     0FAA  0839               	movf	___flmul@temp+1,w
  5465     0FAB  3A80               	xorlw	128
  5466     0FAC  00FF               	movwf	btemp+1
  5467     0FAD  3080               	movlw	128
  5468     0FAE  027F               	subwf	btemp+1,w
  5469     0FAF  1D03               	skipz
  5470     0FB0  2FB3               	goto	u3985
  5471     0FB1  30FF               	movlw	255
  5472     0FB2  0238               	subwf	___flmul@temp,w
  5473     0FB3                     u3985:
  5474     0FB3  1C03               	skipc
  5475     0FB4  2FB6               	goto	u3981
  5476     0FB5  2FB7               	goto	u3980
  5477     0FB6                     u3981:
  5478     0FB6  2FC2               	goto	l2837
  5479     0FB7                     u3980:
  5480     0FB7                     l2835:
  5481     0FB7  307F               	movlw	127
  5482     0FB8  1283               	bcf	3,5	;RP0=0, select bank0
  5483     0FB9  1303               	bcf	3,6	;RP1=0, select bank0
  5484     0FBA  00B7               	movwf	___flmul@prod+3
  5485     0FBB  3080               	movlw	128
  5486     0FBC  00B6               	movwf	___flmul@prod+2
  5487     0FBD  3000               	movlw	0
  5488     0FBE  00B5               	movwf	___flmul@prod+1
  5489     0FBF  3000               	movlw	0
  5490     0FC0  00B4               	movwf	___flmul@prod
  5491     0FC1  2FF3               	goto	l791
  5492     0FC2                     l2837:
  5493     0FC2  1283               	bcf	3,5	;RP0=0, select bank0
  5494     0FC3  1303               	bcf	3,6	;RP1=0, select bank0
  5495     0FC4  0839               	movf	___flmul@temp+1,w
  5496     0FC5  3A80               	xorlw	128
  5497     0FC6  00FF               	movwf	btemp+1
  5498     0FC7  3080               	movlw	128
  5499     0FC8  027F               	subwf	btemp+1,w
  5500     0FC9  1D03               	skipz
  5501     0FCA  2FCD               	goto	u3995
  5502     0FCB  3001               	movlw	1
  5503     0FCC  0238               	subwf	___flmul@temp,w
  5504     0FCD                     u3995:
  5505     0FCD  1803               	skipnc
  5506     0FCE  2FD0               	goto	u3991
  5507     0FCF  2FD1               	goto	u3990
  5508     0FD0                     u3991:
  5509     0FD0  2FDD               	goto	l2843
  5510     0FD1                     u3990:
  5511     0FD1                     l2839:
  5512     0FD1  3000               	movlw	0
  5513     0FD2  1283               	bcf	3,5	;RP0=0, select bank0
  5514     0FD3  1303               	bcf	3,6	;RP1=0, select bank0
  5515     0FD4  00B7               	movwf	___flmul@prod+3
  5516     0FD5  3000               	movlw	0
  5517     0FD6  00B6               	movwf	___flmul@prod+2
  5518     0FD7  3000               	movlw	0
  5519     0FD8  00B5               	movwf	___flmul@prod+1
  5520     0FD9  3000               	movlw	0
  5521     0FDA  00B4               	movwf	___flmul@prod
  5522     0FDB                     l2841:
  5523     0FDB  01AD               	clrf	___flmul@sign
  5524     0FDC  2FF3               	goto	l791
  5525     0FDD                     l2843:
  5526     0FDD  1283               	bcf	3,5	;RP0=0, select bank0
  5527     0FDE  1303               	bcf	3,6	;RP1=0, select bank0
  5528     0FDF  0838               	movf	___flmul@temp,w
  5529     0FE0  00B3               	movwf	___flmul@bexp
  5530     0FE1  30FF               	movlw	255
  5531     0FE2  05B4               	andwf	___flmul@prod,f
  5532     0FE3  30FF               	movlw	255
  5533     0FE4  05B5               	andwf	___flmul@prod+1,f
  5534     0FE5  307F               	movlw	127
  5535     0FE6  05B6               	andwf	___flmul@prod+2,f
  5536     0FE7  3000               	movlw	0
  5537     0FE8  05B7               	andwf	___flmul@prod+3,f
  5538     0FE9                     l2845:
  5539     0FE9  1C33               	btfss	___flmul@bexp,0
  5540     0FEA  2FEC               	goto	u4001
  5541     0FEB  2FED               	goto	u4000
  5542     0FEC                     u4001:
  5543     0FEC  2FEE               	goto	l2849
  5544     0FED                     u4000:
  5545     0FED                     l2847:
  5546     0FED  17B6               	bsf	___flmul@prod+2,7
  5547     0FEE                     l2849:
  5548     0FEE  0833               	movf	___flmul@bexp,w
  5549     0FEF  00A8               	movwf	??___flmul
  5550     0FF0  1003               	clrc
  5551     0FF1  0C28               	rrf	??___flmul,w
  5552     0FF2  00B7               	movwf	___flmul@prod+3
  5553     0FF3                     l791:
  5554     0FF3  082D               	movf	___flmul@sign,w
  5555     0FF4  00A8               	movwf	??___flmul
  5556     0FF5  0828               	movf	??___flmul,w
  5557     0FF6  04B7               	iorwf	___flmul@prod+3,f
  5558     0FF7                     l2851:
  5559     0FF7  0837               	movf	___flmul@prod+3,w
  5560     0FF8  00A3               	movwf	?___flmul+3
  5561     0FF9  0836               	movf	___flmul@prod+2,w
  5562     0FFA  00A2               	movwf	?___flmul+2
  5563     0FFB  0835               	movf	___flmul@prod+1,w
  5564     0FFC  00A1               	movwf	?___flmul+1
  5565     0FFD  0834               	movf	___flmul@prod,w
  5566     0FFE  00A0               	movwf	?___flmul
  5567     0FFF                     l779:
  5568     0FFF  0008               	return
  5569     1000                     __end_of___flmul:
  5570                           
  5571                           	psect	text9
  5572     07D5                     __ptext9:	
  5573 ;; *************** function __Umul8_16 *****************
  5574 ;; Defined at:
  5575 ;;		line 4 in file "D:\Arquivos Programas\Microchip\pic\sources\c90\common\Umul8_16.c"
  5576 ;; Parameters:    Size  Location     Type
  5577 ;;  multiplier      1    wreg     unsigned char 
  5578 ;;  multiplicand    1    2[COMMON] unsigned char 
  5579 ;; Auto vars:     Size  Location     Type
  5580 ;;  multiplier      1   10[COMMON] unsigned char 
  5581 ;;  word_mpld       2    8[COMMON] unsigned int 
  5582 ;;  product         2    6[COMMON] unsigned int 
  5583 ;; Return value:  Size  Location     Type
  5584 ;;                  2    2[COMMON] unsigned int 
  5585 ;; Registers used:
  5586 ;;		wreg, status,2, status,0
  5587 ;; Tracked objects:
  5588 ;;		On entry : 0/0
  5589 ;;		On exit  : 0/0
  5590 ;;		Unchanged: 0/0
  5591 ;; Data sizes:     COMMON   BANK0   BANK1   BANK3   BANK2
  5592 ;;      Params:         2       0       0       0       0
  5593 ;;      Locals:         5       0       0       0       0
  5594 ;;      Temps:          2       0       0       0       0
  5595 ;;      Totals:         9       0       0       0       0
  5596 ;;Total ram usage:        9 bytes
  5597 ;; Hardware stack levels used: 1
  5598 ;; Hardware stack levels required when called: 1
  5599 ;; This function calls:
  5600 ;;		Nothing
  5601 ;; This function is called by:
  5602 ;;		___flmul
  5603 ;; This function uses a non-reentrant model
  5604 ;;
  5605                           
  5606     07D5                     __Umul8_16:	
  5607                           ;psect for function __Umul8_16
  5608                           
  5609                           
  5610                           ;incstack = 0
  5611                           ; Regs used in __Umul8_16: [wreg+status,2+status,0]
  5612                           ;__Umul8_16@multiplier stored from wreg
  5613     07D5  00FA               	movwf	__Umul8_16@multiplier
  5614     07D6                     l2371:
  5615     07D6  01F6               	clrf	__Umul8_16@product
  5616     07D7  01F7               	clrf	__Umul8_16@product+1
  5617     07D8                     l2373:
  5618     07D8  0872               	movf	__Umul8_16@multiplicand,w
  5619     07D9  00F4               	movwf	??__Umul8_16
  5620     07DA  01F5               	clrf	??__Umul8_16+1
  5621     07DB  0874               	movf	??__Umul8_16,w
  5622     07DC  00F8               	movwf	__Umul8_16@word_mpld
  5623     07DD  0875               	movf	??__Umul8_16+1,w
  5624     07DE  00F9               	movwf	__Umul8_16@word_mpld+1
  5625     07DF                     l2375:
  5626     07DF  1C7A               	btfss	__Umul8_16@multiplier,0
  5627     07E0  2FE2               	goto	u2981
  5628     07E1  2FE3               	goto	u2980
  5629     07E2                     u2981:
  5630     07E2  2FE9               	goto	l798
  5631     07E3                     u2980:
  5632     07E3                     l2377:
  5633     07E3  0878               	movf	__Umul8_16@word_mpld,w
  5634     07E4  07F6               	addwf	__Umul8_16@product,f
  5635     07E5  1803               	skipnc
  5636     07E6  0AF7               	incf	__Umul8_16@product+1,f
  5637     07E7  0879               	movf	__Umul8_16@word_mpld+1,w
  5638     07E8  07F7               	addwf	__Umul8_16@product+1,f
  5639     07E9                     l798:
  5640     07E9  3001               	movlw	1
  5641     07EA                     u2995:
  5642     07EA  1003               	clrc
  5643     07EB  0DF8               	rlf	__Umul8_16@word_mpld,f
  5644     07EC  0DF9               	rlf	__Umul8_16@word_mpld+1,f
  5645     07ED  3EFF               	addlw	-1
  5646     07EE  1D03               	skipz
  5647     07EF  2FEA               	goto	u2995
  5648     07F0  1003               	clrc
  5649     07F1  0CFA               	rrf	__Umul8_16@multiplier,f
  5650     07F2                     l2379:
  5651     07F2  087A               	movf	__Umul8_16@multiplier,w
  5652     07F3  1D03               	btfss	3,2
  5653     07F4  2FF6               	goto	u3001
  5654     07F5  2FF7               	goto	u3000
  5655     07F6                     u3001:
  5656     07F6  2FDF               	goto	l2375
  5657     07F7                     u3000:
  5658     07F7                     l2381:
  5659     07F7  0877               	movf	__Umul8_16@product+1,w
  5660     07F8  00F3               	movwf	?__Umul8_16+1
  5661     07F9  0876               	movf	__Umul8_16@product,w
  5662     07FA  00F2               	movwf	?__Umul8_16
  5663     07FB                     l800:
  5664     07FB  0008               	return
  5665     07FC                     __end_of__Umul8_16:
  5666                           
  5667                           	psect	text10
  5668     098A                     __ptext10:	
  5669 ;; *************** function ___flge *****************
  5670 ;; Defined at:
  5671 ;;		line 4 in file "D:\Arquivos Programas\Microchip\pic\sources\c90\common\flge.c"
  5672 ;; Parameters:    Size  Location     Type
  5673 ;;  ff1             4    2[COMMON] unsigned int 
  5674 ;;  ff2             4    6[COMMON] unsigned int 
  5675 ;; Auto vars:     Size  Location     Type
  5676 ;;		None
  5677 ;; Return value:  Size  Location     Type
  5678 ;;		None               void
  5679 ;; Registers used:
  5680 ;;		wreg, status,2, status,0
  5681 ;; Tracked objects:
  5682 ;;		On entry : 0/0
  5683 ;;		On exit  : 0/0
  5684 ;;		Unchanged: 0/0
  5685 ;; Data sizes:     COMMON   BANK0   BANK1   BANK3   BANK2
  5686 ;;      Params:         8       0       0       0       0
  5687 ;;      Locals:         0       0       0       0       0
  5688 ;;      Temps:          0       4       0       0       0
  5689 ;;      Totals:         8       4       0       0       0
  5690 ;;Total ram usage:       12 bytes
  5691 ;; Hardware stack levels used: 1
  5692 ;; Hardware stack levels required when called: 1
  5693 ;; This function calls:
  5694 ;;		Nothing
  5695 ;; This function is called by:
  5696 ;;		_main
  5697 ;; This function uses a non-reentrant model
  5698 ;;
  5699                           
  5700     098A                     ___flge:	
  5701                           ;psect for function ___flge
  5702                           
  5703     098A                     l2553:	
  5704                           ;incstack = 0
  5705                           ; Regs used in ___flge: [wreg+status,2+status,0]
  5706                           
  5707     098A  3000               	movlw	0
  5708     098B  0572               	andwf	___flge@ff1,w
  5709     098C  1283               	bcf	3,5	;RP0=0, select bank0
  5710     098D  1303               	bcf	3,6	;RP1=0, select bank0
  5711     098E  00A0               	movwf	??___flge
  5712     098F  3000               	movlw	0
  5713     0990  0573               	andwf	___flge@ff1+1,w
  5714     0991  00A1               	movwf	??___flge+1
  5715     0992  3080               	movlw	128
  5716     0993  0574               	andwf	___flge@ff1+2,w
  5717     0994  00A2               	movwf	??___flge+2
  5718     0995  307F               	movlw	127
  5719     0996  0575               	andwf	___flge@ff1+3,w
  5720     0997  00A3               	movwf	??___flge+3
  5721     0998  0823               	movf	??___flge+3,w
  5722     0999  0422               	iorwf	??___flge+2,w
  5723     099A  0421               	iorwf	??___flge+1,w
  5724     099B  0420               	iorwf	??___flge,w
  5725     099C  1D03               	skipz
  5726     099D  299F               	goto	u3281
  5727     099E  29A0               	goto	u3280
  5728     099F                     u3281:
  5729     099F  29A8               	goto	l564
  5730     09A0                     u3280:
  5731     09A0                     l2555:
  5732     09A0  3000               	movlw	0
  5733     09A1  00F5               	movwf	___flge@ff1+3
  5734     09A2  3000               	movlw	0
  5735     09A3  00F4               	movwf	___flge@ff1+2
  5736     09A4  3000               	movlw	0
  5737     09A5  00F3               	movwf	___flge@ff1+1
  5738     09A6  3000               	movlw	0
  5739     09A7  00F2               	movwf	___flge@ff1
  5740     09A8                     l564:
  5741     09A8  3000               	movlw	0
  5742     09A9  0576               	andwf	___flge@ff2,w
  5743     09AA  00A0               	movwf	??___flge
  5744     09AB  3000               	movlw	0
  5745     09AC  0577               	andwf	___flge@ff2+1,w
  5746     09AD  00A1               	movwf	??___flge+1
  5747     09AE  3080               	movlw	128
  5748     09AF  0578               	andwf	___flge@ff2+2,w
  5749     09B0  00A2               	movwf	??___flge+2
  5750     09B1  307F               	movlw	127
  5751     09B2  0579               	andwf	___flge@ff2+3,w
  5752     09B3  00A3               	movwf	??___flge+3
  5753     09B4  0823               	movf	??___flge+3,w
  5754     09B5  0422               	iorwf	??___flge+2,w
  5755     09B6  0421               	iorwf	??___flge+1,w
  5756     09B7  0420               	iorwf	??___flge,w
  5757     09B8  1D03               	skipz
  5758     09B9  29BB               	goto	u3291
  5759     09BA  29BC               	goto	u3290
  5760     09BB                     u3291:
  5761     09BB  29C4               	goto	l2559
  5762     09BC                     u3290:
  5763     09BC                     l2557:
  5764     09BC  3000               	movlw	0
  5765     09BD  00F9               	movwf	___flge@ff2+3
  5766     09BE  3000               	movlw	0
  5767     09BF  00F8               	movwf	___flge@ff2+2
  5768     09C0  3000               	movlw	0
  5769     09C1  00F7               	movwf	___flge@ff2+1
  5770     09C2  3000               	movlw	0
  5771     09C3  00F6               	movwf	___flge@ff2
  5772     09C4                     l2559:
  5773     09C4  1FF5               	btfss	___flge@ff1+3,7
  5774     09C5  29C7               	goto	u3301
  5775     09C6  29C8               	goto	u3300
  5776     09C7                     u3301:
  5777     09C7  29EC               	goto	l2563
  5778     09C8                     u3300:
  5779     09C8                     l2561:
  5780     09C8  3000               	movlw	0
  5781     09C9  00A0               	movwf	??___flge
  5782     09CA  3000               	movlw	0
  5783     09CB  00A1               	movwf	??___flge+1
  5784     09CC  3000               	movlw	0
  5785     09CD  00A2               	movwf	??___flge+2
  5786     09CE  3080               	movlw	128
  5787     09CF  00A3               	movwf	??___flge+3
  5788     09D0  0872               	movf	___flge@ff1,w
  5789     09D1  02A0               	subwf	??___flge,f
  5790     09D2  0873               	movf	___flge@ff1+1,w
  5791     09D3  1C03               	skipc
  5792     09D4  0F73               	incfsz	___flge@ff1+1,w
  5793     09D5  29D7               	goto	u3311
  5794     09D6  29D8               	goto	u3312
  5795     09D7                     u3311:
  5796     09D7  02A1               	subwf	??___flge+1,f
  5797     09D8                     u3312:
  5798     09D8  0874               	movf	___flge@ff1+2,w
  5799     09D9  1C03               	skipc
  5800     09DA  0F74               	incfsz	___flge@ff1+2,w
  5801     09DB  29DD               	goto	u3313
  5802     09DC  29DE               	goto	u3314
  5803     09DD                     u3313:
  5804     09DD  02A2               	subwf	??___flge+2,f
  5805     09DE                     u3314:
  5806     09DE  0875               	movf	___flge@ff1+3,w
  5807     09DF  1C03               	skipc
  5808     09E0  0F75               	incfsz	___flge@ff1+3,w
  5809     09E1  29E3               	goto	u3315
  5810     09E2  29E4               	goto	u3316
  5811     09E3                     u3315:
  5812     09E3  02A3               	subwf	??___flge+3,f
  5813     09E4                     u3316:
  5814     09E4  0823               	movf	??___flge+3,w
  5815     09E5  00F5               	movwf	___flge@ff1+3
  5816     09E6  0822               	movf	??___flge+2,w
  5817     09E7  00F4               	movwf	___flge@ff1+2
  5818     09E8  0821               	movf	??___flge+1,w
  5819     09E9  00F3               	movwf	___flge@ff1+1
  5820     09EA  0820               	movf	??___flge,w
  5821     09EB  00F2               	movwf	___flge@ff1
  5822     09EC                     l2563:
  5823     09EC  1FF9               	btfss	___flge@ff2+3,7
  5824     09ED  29EF               	goto	u3321
  5825     09EE  29F0               	goto	u3320
  5826     09EF                     u3321:
  5827     09EF  2A14               	goto	l567
  5828     09F0                     u3320:
  5829     09F0                     l2565:
  5830     09F0  3000               	movlw	0
  5831     09F1  00A0               	movwf	??___flge
  5832     09F2  3000               	movlw	0
  5833     09F3  00A1               	movwf	??___flge+1
  5834     09F4  3000               	movlw	0
  5835     09F5  00A2               	movwf	??___flge+2
  5836     09F6  3080               	movlw	128
  5837     09F7  00A3               	movwf	??___flge+3
  5838     09F8  0876               	movf	___flge@ff2,w
  5839     09F9  02A0               	subwf	??___flge,f
  5840     09FA  0877               	movf	___flge@ff2+1,w
  5841     09FB  1C03               	skipc
  5842     09FC  0F77               	incfsz	___flge@ff2+1,w
  5843     09FD  29FF               	goto	u3331
  5844     09FE  2A00               	goto	u3332
  5845     09FF                     u3331:
  5846     09FF  02A1               	subwf	??___flge+1,f
  5847     0A00                     u3332:
  5848     0A00  0878               	movf	___flge@ff2+2,w
  5849     0A01  1C03               	skipc
  5850     0A02  0F78               	incfsz	___flge@ff2+2,w
  5851     0A03  2A05               	goto	u3333
  5852     0A04  2A06               	goto	u3334
  5853     0A05                     u3333:
  5854     0A05  02A2               	subwf	??___flge+2,f
  5855     0A06                     u3334:
  5856     0A06  0879               	movf	___flge@ff2+3,w
  5857     0A07  1C03               	skipc
  5858     0A08  0F79               	incfsz	___flge@ff2+3,w
  5859     0A09  2A0B               	goto	u3335
  5860     0A0A  2A0C               	goto	u3336
  5861     0A0B                     u3335:
  5862     0A0B  02A3               	subwf	??___flge+3,f
  5863     0A0C                     u3336:
  5864     0A0C  0823               	movf	??___flge+3,w
  5865     0A0D  00F9               	movwf	___flge@ff2+3
  5866     0A0E  0822               	movf	??___flge+2,w
  5867     0A0F  00F8               	movwf	___flge@ff2+2
  5868     0A10  0821               	movf	??___flge+1,w
  5869     0A11  00F7               	movwf	___flge@ff2+1
  5870     0A12  0820               	movf	??___flge,w
  5871     0A13  00F6               	movwf	___flge@ff2
  5872     0A14                     l567:
  5873     0A14  3080               	movlw	128
  5874     0A15  06F5               	xorwf	___flge@ff1+3,f
  5875     0A16  3080               	movlw	128
  5876     0A17  06F9               	xorwf	___flge@ff2+3,f
  5877     0A18  0879               	movf	___flge@ff2+3,w
  5878     0A19  0275               	subwf	___flge@ff1+3,w
  5879     0A1A  1D03               	skipz
  5880     0A1B  2A26               	goto	u3345
  5881     0A1C  0878               	movf	___flge@ff2+2,w
  5882     0A1D  0274               	subwf	___flge@ff1+2,w
  5883     0A1E  1D03               	skipz
  5884     0A1F  2A26               	goto	u3345
  5885     0A20  0877               	movf	___flge@ff2+1,w
  5886     0A21  0273               	subwf	___flge@ff1+1,w
  5887     0A22  1D03               	skipz
  5888     0A23  2A26               	goto	u3345
  5889     0A24  0876               	movf	___flge@ff2,w
  5890     0A25  0272               	subwf	___flge@ff1,w
  5891     0A26                     u3345:
  5892     0A26  1803               	skipnc
  5893     0A27  2A29               	goto	u3341
  5894     0A28  2A2A               	goto	u3340
  5895     0A29                     u3341:
  5896     0A29  2A2C               	goto	l2569
  5897     0A2A                     u3340:
  5898     0A2A                     l2567:
  5899     0A2A  1003               	clrc
  5900     0A2B  2A2D               	goto	l568
  5901     0A2C                     l2569:
  5902     0A2C  1403               	setc
  5903     0A2D                     l568:
  5904     0A2D  0008               	return
  5905     0A2E                     __end_of___flge:
  5906                           
  5907                           	psect	text11
  5908     0AE8                     __ptext11:	
  5909 ;; *************** function ___fldiv *****************
  5910 ;; Defined at:
  5911 ;;		line 8 in file "D:\Arquivos Programas\Microchip\pic\sources\c90\common\sprcdiv.c"
  5912 ;; Parameters:    Size  Location     Type
  5913 ;;  a               4   26[BANK0 ] unsigned int 
  5914 ;;  b               4   30[BANK0 ] unsigned int 
  5915 ;; Auto vars:     Size  Location     Type
  5916 ;;  grs             4   46[BANK0 ] unsigned long 
  5917 ;;  rem             4   39[BANK0 ] unsigned long 
  5918 ;;  new_exp         2   44[BANK0 ] int 
  5919 ;;  aexp            1   51[BANK0 ] unsigned char 
  5920 ;;  bexp            1   50[BANK0 ] unsigned char 
  5921 ;;  sign            1   43[BANK0 ] unsigned char 
  5922 ;; Return value:  Size  Location     Type
  5923 ;;                  4   26[BANK0 ] unsigned char 
  5924 ;; Registers used:
  5925 ;;		wreg, status,2, status,0, btemp+1
  5926 ;; Tracked objects:
  5927 ;;		On entry : 0/0
  5928 ;;		On exit  : 0/0
  5929 ;;		Unchanged: 0/0
  5930 ;; Data sizes:     COMMON   BANK0   BANK1   BANK3   BANK2
  5931 ;;      Params:         0       8       0       0       0
  5932 ;;      Locals:         0      13       0       0       0
  5933 ;;      Temps:          0       5       0       0       0
  5934 ;;      Totals:         0      26       0       0       0
  5935 ;;Total ram usage:       26 bytes
  5936 ;; Hardware stack levels used: 1
  5937 ;; Hardware stack levels required when called: 1
  5938 ;; This function calls:
  5939 ;;		Nothing
  5940 ;; This function is called by:
  5941 ;;		_main
  5942 ;; This function uses a non-reentrant model
  5943 ;;
  5944                           
  5945     0AE8                     ___fldiv:	
  5946                           ;psect for function ___fldiv
  5947                           
  5948     0AE8                     l2573:	
  5949                           ;incstack = 0
  5950                           ; Regs used in ___fldiv: [wreg+status,2+status,0+btemp+1]
  5951                           
  5952     0AE8  1283               	bcf	3,5	;RP0=0, select bank0
  5953     0AE9  1303               	bcf	3,6	;RP1=0, select bank0
  5954     0AEA  0841               	movf	___fldiv@b+3,w
  5955     0AEB  3980               	andlw	128
  5956     0AEC  00CB               	movwf	___fldiv@sign
  5957     0AED                     l2575:
  5958     0AED  0841               	movf	___fldiv@b+3,w
  5959     0AEE  00C2               	movwf	??___fldiv
  5960     0AEF  0742               	addwf	??___fldiv,w
  5961     0AF0  00D2               	movwf	___fldiv@bexp
  5962     0AF1                     l2577:
  5963     0AF1  1FC0               	btfss	___fldiv@b+2,7
  5964     0AF2  2AF4               	goto	u3351
  5965     0AF3  2AF5               	goto	u3350
  5966     0AF4                     u3351:
  5967     0AF4  2AF6               	goto	l2581
  5968     0AF5                     u3350:
  5969     0AF5                     l2579:
  5970     0AF5  1452               	bsf	___fldiv@bexp,0
  5971     0AF6                     l2581:
  5972     0AF6  0852               	movf	___fldiv@bexp,w
  5973     0AF7  1903               	btfsc	3,2
  5974     0AF8  2AFA               	goto	u3361
  5975     0AF9  2AFB               	goto	u3360
  5976     0AFA                     u3361:
  5977     0AFA  2B0B               	goto	l2591
  5978     0AFB                     u3360:
  5979     0AFB                     l2583:
  5980     0AFB  0A52               	incf	___fldiv@bexp,w
  5981     0AFC  1D03               	btfss	3,2
  5982     0AFD  2AFF               	goto	u3371
  5983     0AFE  2B00               	goto	u3370
  5984     0AFF                     u3371:
  5985     0AFF  2B08               	goto	l2587
  5986     0B00                     u3370:
  5987     0B00                     l2585:
  5988     0B00  3000               	movlw	0
  5989     0B01  00C1               	movwf	___fldiv@b+3
  5990     0B02  3000               	movlw	0
  5991     0B03  00C0               	movwf	___fldiv@b+2
  5992     0B04  3000               	movlw	0
  5993     0B05  00BF               	movwf	___fldiv@b+1
  5994     0B06  3000               	movlw	0
  5995     0B07  00BE               	movwf	___fldiv@b
  5996     0B08                     l2587:
  5997     0B08  17C0               	bsf	___fldiv@b+2,7
  5998     0B09                     l2589:
  5999     0B09  01C1               	clrf	___fldiv@b+3
  6000     0B0A  2B13               	goto	l2593
  6001     0B0B                     l2591:
  6002     0B0B  3000               	movlw	0
  6003     0B0C  00C1               	movwf	___fldiv@b+3
  6004     0B0D  3000               	movlw	0
  6005     0B0E  00C0               	movwf	___fldiv@b+2
  6006     0B0F  3000               	movlw	0
  6007     0B10  00BF               	movwf	___fldiv@b+1
  6008     0B11  3000               	movlw	0
  6009     0B12  00BE               	movwf	___fldiv@b
  6010     0B13                     l2593:
  6011     0B13  083D               	movf	___fldiv@a+3,w
  6012     0B14  3980               	andlw	128
  6013     0B15  00C2               	movwf	??___fldiv
  6014     0B16  0842               	movf	??___fldiv,w
  6015     0B17  06CB               	xorwf	___fldiv@sign,f
  6016     0B18                     l2595:
  6017     0B18  083D               	movf	___fldiv@a+3,w
  6018     0B19  00C2               	movwf	??___fldiv
  6019     0B1A  0742               	addwf	??___fldiv,w
  6020     0B1B  00D3               	movwf	___fldiv@aexp
  6021     0B1C                     l2597:
  6022     0B1C  1FBC               	btfss	___fldiv@a+2,7
  6023     0B1D  2B1F               	goto	u3381
  6024     0B1E  2B20               	goto	u3380
  6025     0B1F                     u3381:
  6026     0B1F  2B21               	goto	l2601
  6027     0B20                     u3380:
  6028     0B20                     l2599:
  6029     0B20  1453               	bsf	___fldiv@aexp,0
  6030     0B21                     l2601:
  6031     0B21  0853               	movf	___fldiv@aexp,w
  6032     0B22  1903               	btfsc	3,2
  6033     0B23  2B25               	goto	u3391
  6034     0B24  2B26               	goto	u3390
  6035     0B25                     u3391:
  6036     0B25  2B36               	goto	l2611
  6037     0B26                     u3390:
  6038     0B26                     l2603:
  6039     0B26  0A53               	incf	___fldiv@aexp,w
  6040     0B27  1D03               	btfss	3,2
  6041     0B28  2B2A               	goto	u3401
  6042     0B29  2B2B               	goto	u3400
  6043     0B2A                     u3401:
  6044     0B2A  2B33               	goto	l2607
  6045     0B2B                     u3400:
  6046     0B2B                     l2605:
  6047     0B2B  3000               	movlw	0
  6048     0B2C  00BD               	movwf	___fldiv@a+3
  6049     0B2D  3000               	movlw	0
  6050     0B2E  00BC               	movwf	___fldiv@a+2
  6051     0B2F  3000               	movlw	0
  6052     0B30  00BB               	movwf	___fldiv@a+1
  6053     0B31  3000               	movlw	0
  6054     0B32  00BA               	movwf	___fldiv@a
  6055     0B33                     l2607:
  6056     0B33  17BC               	bsf	___fldiv@a+2,7
  6057     0B34                     l2609:
  6058     0B34  01BD               	clrf	___fldiv@a+3
  6059     0B35  2B3E               	goto	l739
  6060     0B36                     l2611:
  6061     0B36  3000               	movlw	0
  6062     0B37  00BD               	movwf	___fldiv@a+3
  6063     0B38  3000               	movlw	0
  6064     0B39  00BC               	movwf	___fldiv@a+2
  6065     0B3A  3000               	movlw	0
  6066     0B3B  00BB               	movwf	___fldiv@a+1
  6067     0B3C  3000               	movlw	0
  6068     0B3D  00BA               	movwf	___fldiv@a
  6069     0B3E                     l739:
  6070     0B3E  083D               	movf	___fldiv@a+3,w
  6071     0B3F  043C               	iorwf	___fldiv@a+2,w
  6072     0B40  043B               	iorwf	___fldiv@a+1,w
  6073     0B41  043A               	iorwf	___fldiv@a,w
  6074     0B42  1D03               	skipz
  6075     0B43  2B45               	goto	u3411
  6076     0B44  2B46               	goto	u3410
  6077     0B45                     u3411:
  6078     0B45  2B5F               	goto	l2621
  6079     0B46                     u3410:
  6080     0B46                     l2613:
  6081     0B46  3000               	movlw	0
  6082     0B47  00C1               	movwf	___fldiv@b+3
  6083     0B48  3000               	movlw	0
  6084     0B49  00C0               	movwf	___fldiv@b+2
  6085     0B4A  3000               	movlw	0
  6086     0B4B  00BF               	movwf	___fldiv@b+1
  6087     0B4C  3000               	movlw	0
  6088     0B4D  00BE               	movwf	___fldiv@b
  6089     0B4E  3080               	movlw	128
  6090     0B4F  04C0               	iorwf	___fldiv@b+2,f
  6091     0B50  307F               	movlw	127
  6092     0B51  04C1               	iorwf	___fldiv@b+3,f
  6093     0B52                     l2615:
  6094     0B52  084B               	movf	___fldiv@sign,w
  6095     0B53  00C2               	movwf	??___fldiv
  6096     0B54  0842               	movf	??___fldiv,w
  6097     0B55  04C1               	iorwf	___fldiv@b+3,f
  6098     0B56                     l2617:
  6099     0B56  0841               	movf	___fldiv@b+3,w
  6100     0B57  00BD               	movwf	?___fldiv+3
  6101     0B58  0840               	movf	___fldiv@b+2,w
  6102     0B59  00BC               	movwf	?___fldiv+2
  6103     0B5A  083F               	movf	___fldiv@b+1,w
  6104     0B5B  00BB               	movwf	?___fldiv+1
  6105     0B5C  083E               	movf	___fldiv@b,w
  6106     0B5D  00BA               	movwf	?___fldiv
  6107     0B5E  2CBA               	goto	l741
  6108     0B5F                     l2621:
  6109     0B5F  0852               	movf	___fldiv@bexp,w
  6110     0B60  1D03               	btfss	3,2
  6111     0B61  2B63               	goto	u3421
  6112     0B62  2B64               	goto	u3420
  6113     0B63                     u3421:
  6114     0B63  2B6D               	goto	l2627
  6115     0B64                     u3420:
  6116     0B64                     l2623:
  6117     0B64  3000               	movlw	0
  6118     0B65  00BD               	movwf	?___fldiv+3
  6119     0B66  3000               	movlw	0
  6120     0B67  00BC               	movwf	?___fldiv+2
  6121     0B68  3000               	movlw	0
  6122     0B69  00BB               	movwf	?___fldiv+1
  6123     0B6A  3000               	movlw	0
  6124     0B6B  00BA               	movwf	?___fldiv
  6125     0B6C  2CBA               	goto	l741
  6126     0B6D                     l2627:
  6127     0B6D  0852               	movf	___fldiv@bexp,w
  6128     0B6E  00C2               	movwf	??___fldiv
  6129     0B6F  01C3               	clrf	??___fldiv+1
  6130     0B70  0843               	movf	??___fldiv+1,w
  6131     0B71  00C5               	movwf	??___fldiv+3
  6132     0B72  0853               	movf	___fldiv@aexp,w
  6133     0B73  0242               	subwf	??___fldiv,w
  6134     0B74  00C4               	movwf	??___fldiv+2
  6135     0B75  1C03               	skipc
  6136     0B76  03C5               	decf	??___fldiv+3,f
  6137     0B77  0844               	movf	??___fldiv+2,w
  6138     0B78  3E7F               	addlw	127
  6139     0B79  00CC               	movwf	___fldiv@new_exp
  6140     0B7A  0845               	movf	??___fldiv+3,w
  6141     0B7B  1803               	skipnc
  6142     0B7C  3E01               	addlw	1
  6143     0B7D  3E00               	addlw	0
  6144     0B7E  00CD               	movwf	___fldiv@new_exp+1
  6145     0B7F                     l2629:
  6146     0B7F  0841               	movf	___fldiv@b+3,w
  6147     0B80  00CA               	movwf	___fldiv@rem+3
  6148     0B81  0840               	movf	___fldiv@b+2,w
  6149     0B82  00C9               	movwf	___fldiv@rem+2
  6150     0B83  083F               	movf	___fldiv@b+1,w
  6151     0B84  00C8               	movwf	___fldiv@rem+1
  6152     0B85  083E               	movf	___fldiv@b,w
  6153     0B86  00C7               	movwf	___fldiv@rem
  6154     0B87                     l2631:
  6155     0B87  3000               	movlw	0
  6156     0B88  00C1               	movwf	___fldiv@b+3
  6157     0B89  3000               	movlw	0
  6158     0B8A  00C0               	movwf	___fldiv@b+2
  6159     0B8B  3000               	movlw	0
  6160     0B8C  00BF               	movwf	___fldiv@b+1
  6161     0B8D  3000               	movlw	0
  6162     0B8E  00BE               	movwf	___fldiv@b
  6163     0B8F                     l2633:
  6164     0B8F  3000               	movlw	0
  6165     0B90  00D1               	movwf	___fldiv@grs+3
  6166     0B91  3000               	movlw	0
  6167     0B92  00D0               	movwf	___fldiv@grs+2
  6168     0B93  3000               	movlw	0
  6169     0B94  00CF               	movwf	___fldiv@grs+1
  6170     0B95  3000               	movlw	0
  6171     0B96  00CE               	movwf	___fldiv@grs
  6172     0B97                     l2635:
  6173     0B97  01D3               	clrf	___fldiv@aexp
  6174     0B98  2BE3               	goto	l2655
  6175     0B99                     l2637:
  6176     0B99  0853               	movf	___fldiv@aexp,w
  6177     0B9A  1903               	btfsc	3,2
  6178     0B9B  2B9D               	goto	u3431
  6179     0B9C  2B9E               	goto	u3430
  6180     0B9D                     u3431:
  6181     0B9D  2BBE               	goto	l2647
  6182     0B9E                     u3430:
  6183     0B9E                     l2639:
  6184     0B9E  3001               	movlw	1
  6185     0B9F  00C2               	movwf	??___fldiv
  6186     0BA0                     u3445:
  6187     0BA0  1003               	clrc
  6188     0BA1  0DC7               	rlf	___fldiv@rem,f
  6189     0BA2  0DC8               	rlf	___fldiv@rem+1,f
  6190     0BA3  0DC9               	rlf	___fldiv@rem+2,f
  6191     0BA4  0DCA               	rlf	___fldiv@rem+3,f
  6192     0BA5  0BC2               	decfsz	??___fldiv,f
  6193     0BA6  2BA0               	goto	u3445
  6194     0BA7  3001               	movlw	1
  6195     0BA8  00C2               	movwf	??___fldiv
  6196     0BA9                     u3455:
  6197     0BA9  1003               	clrc
  6198     0BAA  0DBE               	rlf	___fldiv@b,f
  6199     0BAB  0DBF               	rlf	___fldiv@b+1,f
  6200     0BAC  0DC0               	rlf	___fldiv@b+2,f
  6201     0BAD  0DC1               	rlf	___fldiv@b+3,f
  6202     0BAE  0BC2               	decfsz	??___fldiv,f
  6203     0BAF  2BA9               	goto	u3455
  6204     0BB0                     l2641:
  6205     0BB0  1FD1               	btfss	___fldiv@grs+3,7
  6206     0BB1  2BB3               	goto	u3461
  6207     0BB2  2BB4               	goto	u3460
  6208     0BB3                     u3461:
  6209     0BB3  2BB5               	goto	l2645
  6210     0BB4                     u3460:
  6211     0BB4                     l2643:
  6212     0BB4  143E               	bsf	___fldiv@b,0
  6213     0BB5                     l2645:
  6214     0BB5  3001               	movlw	1
  6215     0BB6  00C2               	movwf	??___fldiv
  6216     0BB7                     u3475:
  6217     0BB7  1003               	clrc
  6218     0BB8  0DCE               	rlf	___fldiv@grs,f
  6219     0BB9  0DCF               	rlf	___fldiv@grs+1,f
  6220     0BBA  0DD0               	rlf	___fldiv@grs+2,f
  6221     0BBB  0DD1               	rlf	___fldiv@grs+3,f
  6222     0BBC  0BC2               	decfsz	??___fldiv,f
  6223     0BBD  2BB7               	goto	u3475
  6224     0BBE                     l2647:
  6225     0BBE  083D               	movf	___fldiv@a+3,w
  6226     0BBF  024A               	subwf	___fldiv@rem+3,w
  6227     0BC0  1D03               	skipz
  6228     0BC1  2BCC               	goto	u3485
  6229     0BC2  083C               	movf	___fldiv@a+2,w
  6230     0BC3  0249               	subwf	___fldiv@rem+2,w
  6231     0BC4  1D03               	skipz
  6232     0BC5  2BCC               	goto	u3485
  6233     0BC6  083B               	movf	___fldiv@a+1,w
  6234     0BC7  0248               	subwf	___fldiv@rem+1,w
  6235     0BC8  1D03               	skipz
  6236     0BC9  2BCC               	goto	u3485
  6237     0BCA  083A               	movf	___fldiv@a,w
  6238     0BCB  0247               	subwf	___fldiv@rem,w
  6239     0BCC                     u3485:
  6240     0BCC  1C03               	skipc
  6241     0BCD  2BCF               	goto	u3481
  6242     0BCE  2BD0               	goto	u3480
  6243     0BCF                     u3481:
  6244     0BCF  2BDF               	goto	l2653
  6245     0BD0                     u3480:
  6246     0BD0                     l2649:
  6247     0BD0  1751               	bsf	___fldiv@grs+3,6
  6248     0BD1                     l2651:
  6249     0BD1  083A               	movf	___fldiv@a,w
  6250     0BD2  02C7               	subwf	___fldiv@rem,f
  6251     0BD3  083B               	movf	___fldiv@a+1,w
  6252     0BD4  1C03               	skipc
  6253     0BD5  0F3B               	incfsz	___fldiv@a+1,w
  6254     0BD6  02C8               	subwf	___fldiv@rem+1,f
  6255     0BD7  083C               	movf	___fldiv@a+2,w
  6256     0BD8  1C03               	skipc
  6257     0BD9  0F3C               	incfsz	___fldiv@a+2,w
  6258     0BDA  02C9               	subwf	___fldiv@rem+2,f
  6259     0BDB  083D               	movf	___fldiv@a+3,w
  6260     0BDC  1C03               	skipc
  6261     0BDD  0F3D               	incfsz	___fldiv@a+3,w
  6262     0BDE  02CA               	subwf	___fldiv@rem+3,f
  6263     0BDF                     l2653:
  6264     0BDF  3001               	movlw	1
  6265     0BE0  00C2               	movwf	??___fldiv
  6266     0BE1  0842               	movf	??___fldiv,w
  6267     0BE2  07D3               	addwf	___fldiv@aexp,f
  6268     0BE3                     l2655:
  6269     0BE3  301A               	movlw	26
  6270     0BE4  0253               	subwf	___fldiv@aexp,w
  6271     0BE5  1C03               	skipc
  6272     0BE6  2BE8               	goto	u3491
  6273     0BE7  2BE9               	goto	u3490
  6274     0BE8                     u3491:
  6275     0BE8  2B99               	goto	l2637
  6276     0BE9                     u3490:
  6277     0BE9                     l2657:
  6278     0BE9  084A               	movf	___fldiv@rem+3,w
  6279     0BEA  0449               	iorwf	___fldiv@rem+2,w
  6280     0BEB  0448               	iorwf	___fldiv@rem+1,w
  6281     0BEC  0447               	iorwf	___fldiv@rem,w
  6282     0BED  1903               	skipnz
  6283     0BEE  2BF0               	goto	u3501
  6284     0BEF  2BF1               	goto	u3500
  6285     0BF0                     u3501:
  6286     0BF0  2C10               	goto	l2671
  6287     0BF1                     u3500:
  6288     0BF1                     l2659:
  6289     0BF1  144E               	bsf	___fldiv@grs,0
  6290     0BF2  2C10               	goto	l2671
  6291     0BF3                     l2661:
  6292     0BF3  3001               	movlw	1
  6293     0BF4  00C2               	movwf	??___fldiv
  6294     0BF5                     u3515:
  6295     0BF5  1003               	clrc
  6296     0BF6  0DBE               	rlf	___fldiv@b,f
  6297     0BF7  0DBF               	rlf	___fldiv@b+1,f
  6298     0BF8  0DC0               	rlf	___fldiv@b+2,f
  6299     0BF9  0DC1               	rlf	___fldiv@b+3,f
  6300     0BFA  0BC2               	decfsz	??___fldiv,f
  6301     0BFB  2BF5               	goto	u3515
  6302     0BFC                     l2663:
  6303     0BFC  1FD1               	btfss	___fldiv@grs+3,7
  6304     0BFD  2BFF               	goto	u3521
  6305     0BFE  2C00               	goto	u3520
  6306     0BFF                     u3521:
  6307     0BFF  2C01               	goto	l2667
  6308     0C00                     u3520:
  6309     0C00                     l2665:
  6310     0C00  143E               	bsf	___fldiv@b,0
  6311     0C01                     l2667:
  6312     0C01  3001               	movlw	1
  6313     0C02  00C2               	movwf	??___fldiv
  6314     0C03                     u3535:
  6315     0C03  1003               	clrc
  6316     0C04  0DCE               	rlf	___fldiv@grs,f
  6317     0C05  0DCF               	rlf	___fldiv@grs+1,f
  6318     0C06  0DD0               	rlf	___fldiv@grs+2,f
  6319     0C07  0DD1               	rlf	___fldiv@grs+3,f
  6320     0C08  0BC2               	decfsz	??___fldiv,f
  6321     0C09  2C03               	goto	u3535
  6322     0C0A                     l2669:
  6323     0C0A  30FF               	movlw	255
  6324     0C0B  07CC               	addwf	___fldiv@new_exp,f
  6325     0C0C  1803               	skipnc
  6326     0C0D  0ACD               	incf	___fldiv@new_exp+1,f
  6327     0C0E  30FF               	movlw	255
  6328     0C0F  07CD               	addwf	___fldiv@new_exp+1,f
  6329     0C10                     l2671:
  6330     0C10  1FC0               	btfss	___fldiv@b+2,7
  6331     0C11  2C13               	goto	u3541
  6332     0C12  2C14               	goto	u3540
  6333     0C13                     u3541:
  6334     0C13  2BF3               	goto	l2661
  6335     0C14                     u3540:
  6336     0C14                     l2673:
  6337     0C14  01D3               	clrf	___fldiv@aexp
  6338     0C15                     l2675:
  6339     0C15  1FD1               	btfss	___fldiv@grs+3,7
  6340     0C16  2C18               	goto	u3551
  6341     0C17  2C19               	goto	u3550
  6342     0C18                     u3551:
  6343     0C18  2C35               	goto	l2683
  6344     0C19                     u3550:
  6345     0C19                     l2677:
  6346     0C19  30FF               	movlw	255
  6347     0C1A  054E               	andwf	___fldiv@grs,w
  6348     0C1B  00C2               	movwf	??___fldiv
  6349     0C1C  30FF               	movlw	255
  6350     0C1D  054F               	andwf	___fldiv@grs+1,w
  6351     0C1E  00C3               	movwf	??___fldiv+1
  6352     0C1F  30FF               	movlw	255
  6353     0C20  0550               	andwf	___fldiv@grs+2,w
  6354     0C21  00C4               	movwf	??___fldiv+2
  6355     0C22  307F               	movlw	127
  6356     0C23  0551               	andwf	___fldiv@grs+3,w
  6357     0C24  00C5               	movwf	??___fldiv+3
  6358     0C25  0845               	movf	??___fldiv+3,w
  6359     0C26  0444               	iorwf	??___fldiv+2,w
  6360     0C27  0443               	iorwf	??___fldiv+1,w
  6361     0C28  0442               	iorwf	??___fldiv,w
  6362     0C29  1903               	skipnz
  6363     0C2A  2C2C               	goto	u3561
  6364     0C2B  2C2D               	goto	u3560
  6365     0C2C                     u3561:
  6366     0C2C  2C30               	goto	l755
  6367     0C2D                     u3560:
  6368     0C2D                     l2679:
  6369     0C2D  01D3               	clrf	___fldiv@aexp
  6370     0C2E  0AD3               	incf	___fldiv@aexp,f
  6371     0C2F  2C35               	goto	l2683
  6372     0C30                     l755:
  6373     0C30  1C3E               	btfss	___fldiv@b,0
  6374     0C31  2C33               	goto	u3571
  6375     0C32  2C34               	goto	u3570
  6376     0C33                     u3571:
  6377     0C33  2C35               	goto	l2683
  6378     0C34                     u3570:
  6379     0C34  2C2D               	goto	l2679
  6380     0C35                     l2683:
  6381     0C35  0853               	movf	___fldiv@aexp,w
  6382     0C36  1903               	btfsc	3,2
  6383     0C37  2C39               	goto	u3581
  6384     0C38  2C3A               	goto	u3580
  6385     0C39                     u3581:
  6386     0C39  2C6B               	goto	l2693
  6387     0C3A                     u3580:
  6388     0C3A                     l2685:
  6389     0C3A  3001               	movlw	1
  6390     0C3B  07BE               	addwf	___fldiv@b,f
  6391     0C3C  3000               	movlw	0
  6392     0C3D  1803               	skipnc
  6393     0C3E  3001               	movlw	1
  6394     0C3F  07BF               	addwf	___fldiv@b+1,f
  6395     0C40  3000               	movlw	0
  6396     0C41  1803               	skipnc
  6397     0C42  3001               	movlw	1
  6398     0C43  07C0               	addwf	___fldiv@b+2,f
  6399     0C44  3000               	movlw	0
  6400     0C45  1803               	skipnc
  6401     0C46  3001               	movlw	1
  6402     0C47  07C1               	addwf	___fldiv@b+3,f
  6403     0C48                     l2687:
  6404     0C48  1C41               	btfss	___fldiv@b+3,0
  6405     0C49  2C4B               	goto	u3591
  6406     0C4A  2C4C               	goto	u3590
  6407     0C4B                     u3591:
  6408     0C4B  2C6B               	goto	l2693
  6409     0C4C                     u3590:
  6410     0C4C                     l2689:
  6411     0C4C  083E               	movf	___fldiv@b,w
  6412     0C4D  00C2               	movwf	??___fldiv
  6413     0C4E  083F               	movf	___fldiv@b+1,w
  6414     0C4F  00C3               	movwf	??___fldiv+1
  6415     0C50  0840               	movf	___fldiv@b+2,w
  6416     0C51  00C4               	movwf	??___fldiv+2
  6417     0C52  0841               	movf	___fldiv@b+3,w
  6418     0C53  00C5               	movwf	??___fldiv+3
  6419     0C54  3001               	movlw	1
  6420     0C55  00C6               	movwf	??___fldiv+4
  6421     0C56                     u3605:
  6422     0C56  0D45               	rlf	??___fldiv+3,w
  6423     0C57  0CC5               	rrf	??___fldiv+3,f
  6424     0C58  0CC4               	rrf	??___fldiv+2,f
  6425     0C59  0CC3               	rrf	??___fldiv+1,f
  6426     0C5A  0CC2               	rrf	??___fldiv,f
  6427     0C5B                     u3600:
  6428     0C5B  0BC6               	decfsz	??___fldiv+4,f
  6429     0C5C  2C56               	goto	u3605
  6430     0C5D  0845               	movf	??___fldiv+3,w
  6431     0C5E  00C1               	movwf	___fldiv@b+3
  6432     0C5F  0844               	movf	??___fldiv+2,w
  6433     0C60  00C0               	movwf	___fldiv@b+2
  6434     0C61  0843               	movf	??___fldiv+1,w
  6435     0C62  00BF               	movwf	___fldiv@b+1
  6436     0C63  0842               	movf	??___fldiv,w
  6437     0C64  00BE               	movwf	___fldiv@b
  6438     0C65                     l2691:
  6439     0C65  3001               	movlw	1
  6440     0C66  07CC               	addwf	___fldiv@new_exp,f
  6441     0C67  1803               	skipnc
  6442     0C68  0ACD               	incf	___fldiv@new_exp+1,f
  6443     0C69  3000               	movlw	0
  6444     0C6A  07CD               	addwf	___fldiv@new_exp+1,f
  6445     0C6B                     l2693:
  6446     0C6B  084D               	movf	___fldiv@new_exp+1,w
  6447     0C6C  3A80               	xorlw	128
  6448     0C6D  00FF               	movwf	btemp+1
  6449     0C6E  3080               	movlw	128
  6450     0C6F  027F               	subwf	btemp+1,w
  6451     0C70  1D03               	skipz
  6452     0C71  2C74               	goto	u3615
  6453     0C72  30FF               	movlw	255
  6454     0C73  024C               	subwf	___fldiv@new_exp,w
  6455     0C74                     u3615:
  6456     0C74  1C03               	skipc
  6457     0C75  2C77               	goto	u3611
  6458     0C76  2C78               	goto	u3610
  6459     0C77                     u3611:
  6460     0C77  2C86               	goto	l2697
  6461     0C78                     u3610:
  6462     0C78                     l2695:
  6463     0C78  30FF               	movlw	255
  6464     0C79  1283               	bcf	3,5	;RP0=0, select bank0
  6465     0C7A  1303               	bcf	3,6	;RP1=0, select bank0
  6466     0C7B  00CC               	movwf	___fldiv@new_exp
  6467     0C7C  3000               	movlw	0
  6468     0C7D  00CD               	movwf	___fldiv@new_exp+1
  6469     0C7E  3000               	movlw	0
  6470     0C7F  00C1               	movwf	___fldiv@b+3
  6471     0C80  3000               	movlw	0
  6472     0C81  00C0               	movwf	___fldiv@b+2
  6473     0C82  3000               	movlw	0
  6474     0C83  00BF               	movwf	___fldiv@b+1
  6475     0C84  3000               	movlw	0
  6476     0C85  00BE               	movwf	___fldiv@b
  6477     0C86                     l2697:
  6478     0C86  1283               	bcf	3,5	;RP0=0, select bank0
  6479     0C87  1303               	bcf	3,6	;RP1=0, select bank0
  6480     0C88  084D               	movf	___fldiv@new_exp+1,w
  6481     0C89  3A80               	xorlw	128
  6482     0C8A  00FF               	movwf	btemp+1
  6483     0C8B  3080               	movlw	128
  6484     0C8C  027F               	subwf	btemp+1,w
  6485     0C8D  1D03               	skipz
  6486     0C8E  2C91               	goto	u3625
  6487     0C8F  3001               	movlw	1
  6488     0C90  024C               	subwf	___fldiv@new_exp,w
  6489     0C91                     u3625:
  6490     0C91  1803               	skipnc
  6491     0C92  2C94               	goto	u3621
  6492     0C93  2C95               	goto	u3620
  6493     0C94                     u3621:
  6494     0C94  2CA2               	goto	l761
  6495     0C95                     u3620:
  6496     0C95                     l2699:
  6497     0C95  1283               	bcf	3,5	;RP0=0, select bank0
  6498     0C96  1303               	bcf	3,6	;RP1=0, select bank0
  6499     0C97  01CC               	clrf	___fldiv@new_exp
  6500     0C98  01CD               	clrf	___fldiv@new_exp+1
  6501     0C99                     l2701:
  6502     0C99  3000               	movlw	0
  6503     0C9A  00C1               	movwf	___fldiv@b+3
  6504     0C9B  3000               	movlw	0
  6505     0C9C  00C0               	movwf	___fldiv@b+2
  6506     0C9D  3000               	movlw	0
  6507     0C9E  00BF               	movwf	___fldiv@b+1
  6508     0C9F  3000               	movlw	0
  6509     0CA0  00BE               	movwf	___fldiv@b
  6510     0CA1                     l2703:
  6511     0CA1  01CB               	clrf	___fldiv@sign
  6512     0CA2                     l761:
  6513     0CA2  1283               	bcf	3,5	;RP0=0, select bank0
  6514     0CA3  1303               	bcf	3,6	;RP1=0, select bank0
  6515     0CA4  084C               	movf	___fldiv@new_exp,w
  6516     0CA5  00D2               	movwf	___fldiv@bexp
  6517     0CA6                     l2705:
  6518     0CA6  1C52               	btfss	___fldiv@bexp,0
  6519     0CA7  2CA9               	goto	u3631
  6520     0CA8  2CAA               	goto	u3630
  6521     0CA9                     u3631:
  6522     0CA9  2CAC               	goto	l2709
  6523     0CAA                     u3630:
  6524     0CAA                     l2707:
  6525     0CAA  17C0               	bsf	___fldiv@b+2,7
  6526     0CAB  2CB0               	goto	l763
  6527     0CAC                     l2709:
  6528     0CAC  307F               	movlw	127
  6529     0CAD  00C2               	movwf	??___fldiv
  6530     0CAE  0842               	movf	??___fldiv,w
  6531     0CAF  05C0               	andwf	___fldiv@b+2,f
  6532     0CB0                     l763:
  6533     0CB0  0852               	movf	___fldiv@bexp,w
  6534     0CB1  00C2               	movwf	??___fldiv
  6535     0CB2  1003               	clrc
  6536     0CB3  0C42               	rrf	??___fldiv,w
  6537     0CB4  00C1               	movwf	___fldiv@b+3
  6538     0CB5  084B               	movf	___fldiv@sign,w
  6539     0CB6  00C2               	movwf	??___fldiv
  6540     0CB7  0842               	movf	??___fldiv,w
  6541     0CB8  04C1               	iorwf	___fldiv@b+3,f
  6542     0CB9  2B56               	goto	l2617
  6543     0CBA                     l741:
  6544     0CBA  0008               	return
  6545     0CBB                     __end_of___fldiv:
  6546                           
  6547                           	psect	text12
  6548     085E                     __ptext12:	
  6549 ;; *************** function _Lcd_Write_String *****************
  6550 ;; Defined at:
  6551 ;;		line 97 in file "./lcd.h"
  6552 ;; Parameters:    Size  Location     Type
  6553 ;;  a               2    7[COMMON] PTR unsigned char 
  6554 ;;		 -> buffer(20), STR_1(9), 
  6555 ;; Auto vars:     Size  Location     Type
  6556 ;;  i               2    9[COMMON] int 
  6557 ;; Return value:  Size  Location     Type
  6558 ;;                  1    wreg      void 
  6559 ;; Registers used:
  6560 ;;		wreg, fsr0l, fsr0h, status,2, status,0, btemp+1, pclath, cstack
  6561 ;; Tracked objects:
  6562 ;;		On entry : 0/0
  6563 ;;		On exit  : 0/0
  6564 ;;		Unchanged: 0/0
  6565 ;; Data sizes:     COMMON   BANK0   BANK1   BANK3   BANK2
  6566 ;;      Params:         2       0       0       0       0
  6567 ;;      Locals:         2       0       0       0       0
  6568 ;;      Temps:          0       3       0       0       0
  6569 ;;      Totals:         4       3       0       0       0
  6570 ;;Total ram usage:        7 bytes
  6571 ;; Hardware stack levels used: 1
  6572 ;; Hardware stack levels required when called: 3
  6573 ;; This function calls:
  6574 ;;		_Lcd_Write_Char
  6575 ;; This function is called by:
  6576 ;;		_main
  6577 ;; This function uses a non-reentrant model
  6578 ;;
  6579                           
  6580     085E                     _Lcd_Write_String:	
  6581                           ;psect for function _Lcd_Write_String
  6582                           
  6583     085E                     l3663:	
  6584                           ;incstack = 0
  6585                           ; Regs used in _Lcd_Write_String: [wreg-fsr0h+status,2+status,0+btemp+1+pclath+cstack]
  6586                           
  6587                           
  6588                           ;./lcd.h: 97: void Lcd_Write_String(char *a);./lcd.h: 98: {;./lcd.h: 99:  int i;;./lcd.h
      +                          : 100:  for(i=0;a[i]!='\0';i++)
  6589     085E  01F9               	clrf	Lcd_Write_String@i
  6590     085F  01FA               	clrf	Lcd_Write_String@i+1
  6591     0860  2883               	goto	l3669
  6592     0861                     l3665:
  6593                           
  6594                           ;./lcd.h: 101:     Lcd_Write_Char(a[i]);
  6595     0861  0879               	movf	Lcd_Write_String@i,w
  6596     0862  0777               	addwf	Lcd_Write_String@a,w
  6597     0863  00A1               	movwf	??_Lcd_Write_String+1
  6598     0864  0878               	movf	Lcd_Write_String@a+1,w
  6599     0865  00A0               	movwf	??_Lcd_Write_String
  6600     0866  1803               	skipnc
  6601     0867  0AA0               	incf	??_Lcd_Write_String,f
  6602     0868  1FF9               	btfss	Lcd_Write_String@i,7
  6603     0869  286B               	goto	u5580
  6604     086A  03A0               	decf	??_Lcd_Write_String,f
  6605     086B                     u5580:
  6606     086B  1283               	bcf	3,5	;RP0=0, select bank0
  6607     086C  1303               	bcf	3,6	;RP1=0, select bank0
  6608     086D  0820               	movf	??_Lcd_Write_String,w
  6609     086E  00A2               	movwf	??_Lcd_Write_String+2
  6610     086F  0822               	movf	??_Lcd_Write_String+2,w
  6611     0870  00FF               	movwf	btemp+1
  6612     0871  0821               	movf	??_Lcd_Write_String+1,w
  6613     0872  0084               	movwf	4
  6614     0873  160A  118A  2000  120A  158A  	fcall	stringtab
  6615     0878  160A  118A  27CD  120A  158A  	fcall	_Lcd_Write_Char
  6616     087D                     l3667:
  6617     087D  3001               	movlw	1
  6618     087E  07F9               	addwf	Lcd_Write_String@i,f
  6619     087F  1803               	skipnc
  6620     0880  0AFA               	incf	Lcd_Write_String@i+1,f
  6621     0881  3000               	movlw	0
  6622     0882  07FA               	addwf	Lcd_Write_String@i+1,f
  6623     0883                     l3669:
  6624     0883  0879               	movf	Lcd_Write_String@i,w
  6625     0884  0777               	addwf	Lcd_Write_String@a,w
  6626     0885  1283               	bcf	3,5	;RP0=0, select bank0
  6627     0886  1303               	bcf	3,6	;RP1=0, select bank0
  6628     0887  00A1               	movwf	??_Lcd_Write_String+1
  6629     0888  0878               	movf	Lcd_Write_String@a+1,w
  6630     0889  00A0               	movwf	??_Lcd_Write_String
  6631     088A  1803               	skipnc
  6632     088B  0AA0               	incf	??_Lcd_Write_String,f
  6633     088C  1FF9               	btfss	Lcd_Write_String@i,7
  6634     088D  288F               	goto	u5590
  6635     088E  03A0               	decf	??_Lcd_Write_String,f
  6636     088F                     u5590:
  6637     088F  1283               	bcf	3,5	;RP0=0, select bank0
  6638     0890  1303               	bcf	3,6	;RP1=0, select bank0
  6639     0891  0820               	movf	??_Lcd_Write_String,w
  6640     0892  00A2               	movwf	??_Lcd_Write_String+2
  6641     0893  0822               	movf	??_Lcd_Write_String+2,w
  6642     0894  00FF               	movwf	btemp+1
  6643     0895  0821               	movf	??_Lcd_Write_String+1,w
  6644     0896  0084               	movwf	4
  6645     0897  160A  118A  2000  120A  158A  	fcall	stringtab
  6646     089C  3A00               	xorlw	0
  6647     089D  1D03               	skipz
  6648     089E  28A0               	goto	u5601
  6649     089F  28A1               	goto	u5600
  6650     08A0                     u5601:
  6651     08A0  2861               	goto	l3665
  6652     08A1                     u5600:
  6653     08A1                     l95:
  6654     08A1  0008               	return
  6655     08A2                     __end_of_Lcd_Write_String:
  6656                           
  6657                           	psect	text13
  6658     17CD                     __ptext13:	
  6659 ;; *************** function _Lcd_Write_Char *****************
  6660 ;; Defined at:
  6661 ;;		line 81 in file "./lcd.h"
  6662 ;; Parameters:    Size  Location     Type
  6663 ;;  a               1    wreg     unsigned char 
  6664 ;; Auto vars:     Size  Location     Type
  6665 ;;  a               1    6[COMMON] unsigned char 
  6666 ;;  y               1    5[COMMON] unsigned char 
  6667 ;;  temp            1    4[COMMON] unsigned char 
  6668 ;; Return value:  Size  Location     Type
  6669 ;;                  1    wreg      void 
  6670 ;; Registers used:
  6671 ;;		wreg, status,2, status,0, pclath, cstack
  6672 ;; Tracked objects:
  6673 ;;		On entry : 0/0
  6674 ;;		On exit  : 0/0
  6675 ;;		Unchanged: 0/0
  6676 ;; Data sizes:     COMMON   BANK0   BANK1   BANK3   BANK2
  6677 ;;      Params:         0       0       0       0       0
  6678 ;;      Locals:         3       0       0       0       0
  6679 ;;      Temps:          1       0       0       0       0
  6680 ;;      Totals:         4       0       0       0       0
  6681 ;;Total ram usage:        4 bytes
  6682 ;; Hardware stack levels used: 1
  6683 ;; Hardware stack levels required when called: 2
  6684 ;; This function calls:
  6685 ;;		_Lcd_Port
  6686 ;; This function is called by:
  6687 ;;		_Lcd_Write_String
  6688 ;; This function uses a non-reentrant model
  6689 ;;
  6690                           
  6691     17CD                     _Lcd_Write_Char:	
  6692                           ;psect for function _Lcd_Write_Char
  6693                           
  6694                           
  6695                           ;incstack = 0
  6696                           ; Regs used in _Lcd_Write_Char: [wreg+status,2+status,0+pclath+cstack]
  6697                           ;Lcd_Write_Char@a stored from wreg
  6698     17CD  00F6               	movwf	Lcd_Write_Char@a
  6699     17CE                     l3589:
  6700                           
  6701                           ;./lcd.h: 81: void Lcd_Write_Char(char a);./lcd.h: 82: {;./lcd.h: 83:    char temp,y;;./
      +                          lcd.h: 84:    temp = a&0x0F;
  6702     17CE  0876               	movf	Lcd_Write_Char@a,w
  6703     17CF  390F               	andlw	15
  6704     17D0  00F4               	movwf	Lcd_Write_Char@temp
  6705                           
  6706                           ;./lcd.h: 85:    y = a&0xF0;
  6707     17D1  0876               	movf	Lcd_Write_Char@a,w
  6708     17D2  39F0               	andlw	240
  6709     17D3  00F5               	movwf	Lcd_Write_Char@y
  6710     17D4                     l3591:
  6711                           
  6712                           ;./lcd.h: 86:    RD2 = 1;
  6713     17D4  1283               	bcf	3,5	;RP0=0, select bank0
  6714     17D5  1303               	bcf	3,6	;RP1=0, select bank0
  6715     17D6  1508               	bsf	8,2	;volatile
  6716     17D7                     l3593:
  6717                           
  6718                           ;./lcd.h: 87:    Lcd_Port(y>>4);
  6719     17D7  0875               	movf	Lcd_Write_Char@y,w
  6720     17D8  00F3               	movwf	??_Lcd_Write_Char
  6721     17D9  3004               	movlw	4
  6722     17DA                     u5475:
  6723     17DA  1003               	clrc
  6724     17DB  0CF3               	rrf	??_Lcd_Write_Char,f
  6725     17DC  3EFF               	addlw	-1
  6726     17DD  1D03               	skipz
  6727     17DE  2FDA               	goto	u5475
  6728     17DF  0873               	movf	??_Lcd_Write_Char,w
  6729     17E0  120A  158A  2000  160A  118A  	fcall	_Lcd_Port
  6730     17E5                     l3595:
  6731                           
  6732                           ;./lcd.h: 88:    RD3 = 1;
  6733     17E5  1283               	bcf	3,5	;RP0=0, select bank0
  6734     17E6  1303               	bcf	3,6	;RP1=0, select bank0
  6735     17E7  1588               	bsf	8,3	;volatile
  6736     17E8                     l3597:
  6737                           
  6738                           ;./lcd.h: 89:    _delay((unsigned long)((40)*(4000000/4000000.0)));
  6739     17E8  300D               	movlw	13
  6740     17E9  00F3               	movwf	??_Lcd_Write_Char
  6741     17EA                     u7057:
  6742     17EA  0BF3               	decfsz	??_Lcd_Write_Char,f
  6743     17EB  2FEA               	goto	u7057
  6744     17EC                     l3599:
  6745                           
  6746                           ;./lcd.h: 90:    RD3 = 0;
  6747     17EC  1283               	bcf	3,5	;RP0=0, select bank0
  6748     17ED  1303               	bcf	3,6	;RP1=0, select bank0
  6749     17EE  1188               	bcf	8,3	;volatile
  6750     17EF                     l3601:
  6751                           
  6752                           ;./lcd.h: 91:    Lcd_Port(temp);
  6753     17EF  0874               	movf	Lcd_Write_Char@temp,w
  6754     17F0  120A  158A  2000  160A  118A  	fcall	_Lcd_Port
  6755     17F5                     l3603:
  6756                           
  6757                           ;./lcd.h: 92:    RD3 = 1;
  6758     17F5  1283               	bcf	3,5	;RP0=0, select bank0
  6759     17F6  1303               	bcf	3,6	;RP1=0, select bank0
  6760     17F7  1588               	bsf	8,3	;volatile
  6761     17F8                     l3605:
  6762                           
  6763                           ;./lcd.h: 93:    _delay((unsigned long)((40)*(4000000/4000000.0)));
  6764     17F8  300D               	movlw	13
  6765     17F9  00F3               	movwf	??_Lcd_Write_Char
  6766     17FA                     u7067:
  6767     17FA  0BF3               	decfsz	??_Lcd_Write_Char,f
  6768     17FB  2FFA               	goto	u7067
  6769     17FC                     l3607:
  6770                           
  6771                           ;./lcd.h: 94:    RD3 = 0;
  6772     17FC  1283               	bcf	3,5	;RP0=0, select bank0
  6773     17FD  1303               	bcf	3,6	;RP1=0, select bank0
  6774     17FE  1188               	bcf	8,3	;volatile
  6775     17FF                     l89:
  6776     17FF  0008               	return
  6777     1800                     __end_of_Lcd_Write_Char:
  6778                           
  6779                           	psect	text14
  6780     08E6                     __ptext14:	
  6781 ;; *************** function _Lcd_Set_Cursor *****************
  6782 ;; Defined at:
  6783 ;;		line 41 in file "./lcd.h"
  6784 ;; Parameters:    Size  Location     Type
  6785 ;;  a               1    wreg     unsigned char 
  6786 ;;  b               1    6[COMMON] unsigned char 
  6787 ;; Auto vars:     Size  Location     Type
  6788 ;;  a               1    0[BANK0 ] unsigned char 
  6789 ;;  temp            1    3[BANK0 ] unsigned char 
  6790 ;;  y               1    2[BANK0 ] unsigned char 
  6791 ;;  z               1    1[BANK0 ] unsigned char 
  6792 ;; Return value:  Size  Location     Type
  6793 ;;                  1    wreg      void 
  6794 ;; Registers used:
  6795 ;;		wreg, status,2, status,0, pclath, cstack
  6796 ;; Tracked objects:
  6797 ;;		On entry : 0/0
  6798 ;;		On exit  : 0/0
  6799 ;;		Unchanged: 0/0
  6800 ;; Data sizes:     COMMON   BANK0   BANK1   BANK3   BANK2
  6801 ;;      Params:         1       0       0       0       0
  6802 ;;      Locals:         0       4       0       0       0
  6803 ;;      Temps:          1       0       0       0       0
  6804 ;;      Totals:         2       4       0       0       0
  6805 ;;Total ram usage:        6 bytes
  6806 ;; Hardware stack levels used: 1
  6807 ;; Hardware stack levels required when called: 3
  6808 ;; This function calls:
  6809 ;;		_Lcd_Cmd
  6810 ;; This function is called by:
  6811 ;;		_main
  6812 ;; This function uses a non-reentrant model
  6813 ;;
  6814                           
  6815     08E6                     _Lcd_Set_Cursor:	
  6816                           ;psect for function _Lcd_Set_Cursor
  6817                           
  6818                           
  6819                           ;incstack = 0
  6820                           ; Regs used in _Lcd_Set_Cursor: [wreg+status,2+status,0+pclath+cstack]
  6821                           ;Lcd_Set_Cursor@a stored from wreg
  6822     08E6  1283               	bcf	3,5	;RP0=0, select bank0
  6823     08E7  1303               	bcf	3,6	;RP1=0, select bank0
  6824     08E8  00A0               	movwf	Lcd_Set_Cursor@a
  6825     08E9                     l3633:
  6826                           
  6827                           ;./lcd.h: 41: void Lcd_Set_Cursor(char a, char b);./lcd.h: 42: {;./lcd.h: 43:  char temp
      +                          ,z,y;;./lcd.h: 44:  if(a == 1)
  6828     08E9  0320               	decf	Lcd_Set_Cursor@a,w
  6829     08EA  1D03               	btfss	3,2
  6830     08EB  28ED               	goto	u5541
  6831     08EC  28EE               	goto	u5540
  6832     08ED                     u5541:
  6833     08ED  290D               	goto	l3643
  6834     08EE                     u5540:
  6835     08EE                     l3635:
  6836                           
  6837                           ;./lcd.h: 45:  {;./lcd.h: 46:    temp = 0x80 + b - 1;
  6838     08EE  0876               	movf	Lcd_Set_Cursor@b,w
  6839     08EF  3E7F               	addlw	127
  6840     08F0  00A3               	movwf	Lcd_Set_Cursor@temp
  6841                           
  6842                           ;./lcd.h: 47:   z = temp>>4;
  6843     08F1  0823               	movf	Lcd_Set_Cursor@temp,w
  6844     08F2  00F7               	movwf	??_Lcd_Set_Cursor
  6845     08F3  3004               	movlw	4
  6846     08F4                     u5555:
  6847     08F4  1003               	clrc
  6848     08F5  0CF7               	rrf	??_Lcd_Set_Cursor,f
  6849     08F6  3EFF               	addlw	-1
  6850     08F7  1D03               	skipz
  6851     08F8  28F4               	goto	u5555
  6852     08F9  0877               	movf	??_Lcd_Set_Cursor,w
  6853     08FA  00A1               	movwf	Lcd_Set_Cursor@z
  6854     08FB                     l3637:
  6855                           
  6856                           ;./lcd.h: 48:   y = temp & 0x0F;
  6857     08FB  0823               	movf	Lcd_Set_Cursor@temp,w
  6858     08FC  390F               	andlw	15
  6859     08FD  00A2               	movwf	Lcd_Set_Cursor@y
  6860     08FE                     l3639:
  6861                           
  6862                           ;./lcd.h: 49:   Lcd_Cmd(z);
  6863     08FE  0821               	movf	Lcd_Set_Cursor@z,w
  6864     08FF  160A  118A  278E  120A  158A  	fcall	_Lcd_Cmd
  6865     0904                     l3641:
  6866                           
  6867                           ;./lcd.h: 50:   Lcd_Cmd(y);
  6868     0904  1283               	bcf	3,5	;RP0=0, select bank0
  6869     0905  1303               	bcf	3,6	;RP1=0, select bank0
  6870     0906  0822               	movf	Lcd_Set_Cursor@y,w
  6871     0907  160A  118A  278E  120A  158A  	fcall	_Lcd_Cmd
  6872                           
  6873                           ;./lcd.h: 51:  }
  6874     090C  2931               	goto	l83
  6875     090D                     l3643:
  6876     090D  3002               	movlw	2
  6877     090E  0620               	xorwf	Lcd_Set_Cursor@a,w
  6878     090F  1D03               	btfss	3,2
  6879     0910  2912               	goto	u5561
  6880     0911  2913               	goto	u5560
  6881     0912                     u5561:
  6882     0912  2931               	goto	l83
  6883     0913                     u5560:
  6884     0913                     l3645:
  6885                           
  6886                           ;./lcd.h: 53:  {;./lcd.h: 54:   temp = 0xC0 + b - 1;
  6887     0913  0876               	movf	Lcd_Set_Cursor@b,w
  6888     0914  3EBF               	addlw	191
  6889     0915  00A3               	movwf	Lcd_Set_Cursor@temp
  6890                           
  6891                           ;./lcd.h: 55:   z = temp>>4;
  6892     0916  0823               	movf	Lcd_Set_Cursor@temp,w
  6893     0917  00F7               	movwf	??_Lcd_Set_Cursor
  6894     0918  3004               	movlw	4
  6895     0919                     u5575:
  6896     0919  1003               	clrc
  6897     091A  0CF7               	rrf	??_Lcd_Set_Cursor,f
  6898     091B  3EFF               	addlw	-1
  6899     091C  1D03               	skipz
  6900     091D  2919               	goto	u5575
  6901     091E  0877               	movf	??_Lcd_Set_Cursor,w
  6902     091F  00A1               	movwf	Lcd_Set_Cursor@z
  6903     0920                     l3647:
  6904                           
  6905                           ;./lcd.h: 56:   y = temp & 0x0F;
  6906     0920  0823               	movf	Lcd_Set_Cursor@temp,w
  6907     0921  390F               	andlw	15
  6908     0922  00A2               	movwf	Lcd_Set_Cursor@y
  6909     0923                     l3649:
  6910                           
  6911                           ;./lcd.h: 57:   Lcd_Cmd(z);
  6912     0923  0821               	movf	Lcd_Set_Cursor@z,w
  6913     0924  160A  118A  278E  120A  158A  	fcall	_Lcd_Cmd
  6914     0929                     l3651:
  6915                           
  6916                           ;./lcd.h: 58:   Lcd_Cmd(y);
  6917     0929  1283               	bcf	3,5	;RP0=0, select bank0
  6918     092A  1303               	bcf	3,6	;RP1=0, select bank0
  6919     092B  0822               	movf	Lcd_Set_Cursor@y,w
  6920     092C  160A  118A  278E  120A  158A  	fcall	_Lcd_Cmd
  6921     0931                     l83:
  6922     0931  0008               	return
  6923     0932                     __end_of_Lcd_Set_Cursor:
  6924                           
  6925                           	psect	text15
  6926     0778                     __ptext15:	
  6927 ;; *************** function _Lcd_Init *****************
  6928 ;; Defined at:
  6929 ;;		line 62 in file "./lcd.h"
  6930 ;; Parameters:    Size  Location     Type
  6931 ;;		None
  6932 ;; Auto vars:     Size  Location     Type
  6933 ;;		None
  6934 ;; Return value:  Size  Location     Type
  6935 ;;                  1    wreg      void 
  6936 ;; Registers used:
  6937 ;;		wreg, status,2, status,0, pclath, cstack
  6938 ;; Tracked objects:
  6939 ;;		On entry : 0/0
  6940 ;;		On exit  : 0/0
  6941 ;;		Unchanged: 0/0
  6942 ;; Data sizes:     COMMON   BANK0   BANK1   BANK3   BANK2
  6943 ;;      Params:         0       0       0       0       0
  6944 ;;      Locals:         0       0       0       0       0
  6945 ;;      Temps:          2       0       0       0       0
  6946 ;;      Totals:         2       0       0       0       0
  6947 ;;Total ram usage:        2 bytes
  6948 ;; Hardware stack levels used: 1
  6949 ;; Hardware stack levels required when called: 3
  6950 ;; This function calls:
  6951 ;;		_Lcd_Cmd
  6952 ;;		_Lcd_Port
  6953 ;; This function is called by:
  6954 ;;		_main
  6955 ;; This function uses a non-reentrant model
  6956 ;;
  6957                           
  6958     0778                     _Lcd_Init:	
  6959                           ;psect for function _Lcd_Init
  6960                           
  6961     0778                     l3653:	
  6962                           ;incstack = 0
  6963                           ; Regs used in _Lcd_Init: [wreg+status,2+status,0+pclath+cstack]
  6964                           
  6965                           
  6966                           ;./lcd.h: 64:   Lcd_Port(0x00);
  6967     0778  3000               	movlw	0
  6968     0779  120A  158A  2000  120A  118A  	fcall	_Lcd_Port
  6969     077E                     l3655:
  6970                           
  6971                           ;./lcd.h: 65:    _delay((unsigned long)((20)*(4000000/4000.0)));
  6972     077E  301A               	movlw	26
  6973     077F  00F7               	movwf	??_Lcd_Init+1
  6974     0780  30F8               	movlw	248
  6975     0781  00F6               	movwf	??_Lcd_Init
  6976     0782                     u7077:
  6977     0782  0BF6               	decfsz	??_Lcd_Init,f
  6978     0783  2F82               	goto	u7077
  6979     0784  0BF7               	decfsz	??_Lcd_Init+1,f
  6980     0785  2F82               	goto	u7077
  6981     0786  0000               	nop
  6982     0787                     l3657:
  6983                           
  6984                           ;./lcd.h: 66:   Lcd_Cmd(0x03);
  6985     0787  3003               	movlw	3
  6986     0788  160A  118A  278E  120A  118A  	fcall	_Lcd_Cmd
  6987                           
  6988                           ;./lcd.h: 67:  _delay((unsigned long)((5)*(4000000/4000.0)));
  6989     078D  3007               	movlw	7
  6990     078E  00F7               	movwf	??_Lcd_Init+1
  6991     078F  307D               	movlw	125
  6992     0790  00F6               	movwf	??_Lcd_Init
  6993     0791                     u7087:
  6994     0791  0BF6               	decfsz	??_Lcd_Init,f
  6995     0792  2F91               	goto	u7087
  6996     0793  0BF7               	decfsz	??_Lcd_Init+1,f
  6997     0794  2F91               	goto	u7087
  6998     0795                     l3659:
  6999                           
  7000                           ;./lcd.h: 68:   Lcd_Cmd(0x03);
  7001     0795  3003               	movlw	3
  7002     0796  160A  118A  278E  120A  118A  	fcall	_Lcd_Cmd
  7003     079B                     l3661:
  7004                           
  7005                           ;./lcd.h: 69:  _delay((unsigned long)((11)*(4000000/4000.0)));
  7006     079B  300F               	movlw	15
  7007     079C  00F7               	movwf	??_Lcd_Init+1
  7008     079D  3047               	movlw	71
  7009     079E  00F6               	movwf	??_Lcd_Init
  7010     079F                     u7097:
  7011     079F  0BF6               	decfsz	??_Lcd_Init,f
  7012     07A0  2F9F               	goto	u7097
  7013     07A1  0BF7               	decfsz	??_Lcd_Init+1,f
  7014     07A2  2F9F               	goto	u7097
  7015     07A3  2FA4               	nop2
  7016                           
  7017                           ;./lcd.h: 70:   Lcd_Cmd(0x03);
  7018     07A4  3003               	movlw	3
  7019     07A5  160A  118A  278E  120A  118A  	fcall	_Lcd_Cmd
  7020                           
  7021                           ;./lcd.h: 72:   Lcd_Cmd(0x02);
  7022     07AA  3002               	movlw	2
  7023     07AB  160A  118A  278E  120A  118A  	fcall	_Lcd_Cmd
  7024                           
  7025                           ;./lcd.h: 73:   Lcd_Cmd(0x02);
  7026     07B0  3002               	movlw	2
  7027     07B1  160A  118A  278E  120A  118A  	fcall	_Lcd_Cmd
  7028                           
  7029                           ;./lcd.h: 74:   Lcd_Cmd(0x08);
  7030     07B6  3008               	movlw	8
  7031     07B7  160A  118A  278E  120A  118A  	fcall	_Lcd_Cmd
  7032                           
  7033                           ;./lcd.h: 75:   Lcd_Cmd(0x00);
  7034     07BC  3000               	movlw	0
  7035     07BD  160A  118A  278E  120A  118A  	fcall	_Lcd_Cmd
  7036                           
  7037                           ;./lcd.h: 76:   Lcd_Cmd(0x0C);
  7038     07C2  300C               	movlw	12
  7039     07C3  160A  118A  278E  120A  118A  	fcall	_Lcd_Cmd
  7040                           
  7041                           ;./lcd.h: 77:   Lcd_Cmd(0x00);
  7042     07C8  3000               	movlw	0
  7043     07C9  160A  118A  278E  120A  118A  	fcall	_Lcd_Cmd
  7044                           
  7045                           ;./lcd.h: 78:   Lcd_Cmd(0x06);
  7046     07CE  3006               	movlw	6
  7047     07CF  160A  118A  278E  120A  118A  	fcall	_Lcd_Cmd
  7048     07D4                     l86:
  7049     07D4  0008               	return
  7050     07D5                     __end_of_Lcd_Init:
  7051                           
  7052                           	psect	text16
  7053     175A                     __ptext16:	
  7054 ;; *************** function _Lcd_Clear *****************
  7055 ;; Defined at:
  7056 ;;		line 35 in file "./lcd.h"
  7057 ;; Parameters:    Size  Location     Type
  7058 ;;		None
  7059 ;; Auto vars:     Size  Location     Type
  7060 ;;		None
  7061 ;; Return value:  Size  Location     Type
  7062 ;;                  1    wreg      void 
  7063 ;; Registers used:
  7064 ;;		wreg, status,2, status,0, pclath, cstack
  7065 ;; Tracked objects:
  7066 ;;		On entry : 0/0
  7067 ;;		On exit  : 0/0
  7068 ;;		Unchanged: 0/0
  7069 ;; Data sizes:     COMMON   BANK0   BANK1   BANK3   BANK2
  7070 ;;      Params:         0       0       0       0       0
  7071 ;;      Locals:         0       0       0       0       0
  7072 ;;      Temps:          0       0       0       0       0
  7073 ;;      Totals:         0       0       0       0       0
  7074 ;;Total ram usage:        0 bytes
  7075 ;; Hardware stack levels used: 1
  7076 ;; Hardware stack levels required when called: 3
  7077 ;; This function calls:
  7078 ;;		_Lcd_Cmd
  7079 ;; This function is called by:
  7080 ;;		_main
  7081 ;; This function uses a non-reentrant model
  7082 ;;
  7083                           
  7084     175A                     _Lcd_Clear:	
  7085                           ;psect for function _Lcd_Clear
  7086                           
  7087     175A                     l3631:	
  7088                           ;incstack = 0
  7089                           ; Regs used in _Lcd_Clear: [wreg+status,2+status,0+pclath+cstack]
  7090                           
  7091                           
  7092                           ;./lcd.h: 37:  Lcd_Cmd(0);
  7093     175A  3000               	movlw	0
  7094     175B  160A  118A  278E  160A  118A  	fcall	_Lcd_Cmd
  7095                           
  7096                           ;./lcd.h: 38:  Lcd_Cmd(1);
  7097     1760  3001               	movlw	1
  7098     1761  160A  118A  278E  160A  118A  	fcall	_Lcd_Cmd
  7099     1766                     l77:
  7100     1766  0008               	return
  7101     1767                     __end_of_Lcd_Clear:
  7102                           
  7103                           	psect	text17
  7104     178E                     __ptext17:	
  7105 ;; *************** function _Lcd_Cmd *****************
  7106 ;; Defined at:
  7107 ;;		line 26 in file "./lcd.h"
  7108 ;; Parameters:    Size  Location     Type
  7109 ;;  a               1    wreg     unsigned char 
  7110 ;; Auto vars:     Size  Location     Type
  7111 ;;  a               1    5[COMMON] unsigned char 
  7112 ;; Return value:  Size  Location     Type
  7113 ;;                  1    wreg      void 
  7114 ;; Registers used:
  7115 ;;		wreg, status,2, status,0, pclath, cstack
  7116 ;; Tracked objects:
  7117 ;;		On entry : 0/0
  7118 ;;		On exit  : 0/0
  7119 ;;		Unchanged: 0/0
  7120 ;; Data sizes:     COMMON   BANK0   BANK1   BANK3   BANK2
  7121 ;;      Params:         0       0       0       0       0
  7122 ;;      Locals:         1       0       0       0       0
  7123 ;;      Temps:          2       0       0       0       0
  7124 ;;      Totals:         3       0       0       0       0
  7125 ;;Total ram usage:        3 bytes
  7126 ;; Hardware stack levels used: 1
  7127 ;; Hardware stack levels required when called: 2
  7128 ;; This function calls:
  7129 ;;		_Lcd_Port
  7130 ;; This function is called by:
  7131 ;;		_Lcd_Clear
  7132 ;;		_Lcd_Set_Cursor
  7133 ;;		_Lcd_Init
  7134 ;;		_Lcd_Shift_Right
  7135 ;;		_Lcd_Shift_Left
  7136 ;; This function uses a non-reentrant model
  7137 ;;
  7138                           
  7139     178E                     _Lcd_Cmd:	
  7140                           ;psect for function _Lcd_Cmd
  7141                           
  7142                           
  7143                           ;incstack = 0
  7144                           ; Regs used in _Lcd_Cmd: [wreg+status,2+status,0+pclath+cstack]
  7145                           ;Lcd_Cmd@a stored from wreg
  7146     178E  00F5               	movwf	Lcd_Cmd@a
  7147     178F                     l3579:
  7148                           
  7149                           ;./lcd.h: 26: void Lcd_Cmd(char a);./lcd.h: 27: {;./lcd.h: 28:  RD2 = 0;
  7150     178F  1283               	bcf	3,5	;RP0=0, select bank0
  7151     1790  1303               	bcf	3,6	;RP1=0, select bank0
  7152     1791  1108               	bcf	8,2	;volatile
  7153     1792                     l3581:
  7154                           
  7155                           ;./lcd.h: 29:  Lcd_Port(a);
  7156     1792  0875               	movf	Lcd_Cmd@a,w
  7157     1793  120A  158A  2000  160A  118A  	fcall	_Lcd_Port
  7158     1798                     l3583:
  7159                           
  7160                           ;./lcd.h: 30:  RD3 = 1;
  7161     1798  1283               	bcf	3,5	;RP0=0, select bank0
  7162     1799  1303               	bcf	3,6	;RP1=0, select bank0
  7163     179A  1588               	bsf	8,3	;volatile
  7164     179B                     l3585:
  7165                           
  7166                           ;./lcd.h: 31:         _delay((unsigned long)((4)*(4000000/4000.0)));
  7167     179B  3006               	movlw	6
  7168     179C  00F4               	movwf	??_Lcd_Cmd+1
  7169     179D  3030               	movlw	48
  7170     179E  00F3               	movwf	??_Lcd_Cmd
  7171     179F                     u7107:
  7172     179F  0BF3               	decfsz	??_Lcd_Cmd,f
  7173     17A0  2F9F               	goto	u7107
  7174     17A1  0BF4               	decfsz	??_Lcd_Cmd+1,f
  7175     17A2  2F9F               	goto	u7107
  7176     17A3  0000               	nop
  7177     17A4                     l3587:
  7178                           
  7179                           ;./lcd.h: 32:         RD3 = 0;
  7180     17A4  1283               	bcf	3,5	;RP0=0, select bank0
  7181     17A5  1303               	bcf	3,6	;RP1=0, select bank0
  7182     17A6  1188               	bcf	8,3	;volatile
  7183     17A7                     l74:
  7184     17A7  0008               	return
  7185     17A8                     __end_of_Lcd_Cmd:
  7186                           
  7187                           	psect	text18
  7188     0800                     __ptext18:	
  7189 ;; *************** function _Lcd_Port *****************
  7190 ;; Defined at:
  7191 ;;		line 4 in file "./lcd.h"
  7192 ;; Parameters:    Size  Location     Type
  7193 ;;  a               1    wreg     unsigned char 
  7194 ;; Auto vars:     Size  Location     Type
  7195 ;;  a               1    2[COMMON] unsigned char 
  7196 ;; Return value:  Size  Location     Type
  7197 ;;                  1    wreg      void 
  7198 ;; Registers used:
  7199 ;;		wreg
  7200 ;; Tracked objects:
  7201 ;;		On entry : 0/0
  7202 ;;		On exit  : 0/0
  7203 ;;		Unchanged: 0/0
  7204 ;; Data sizes:     COMMON   BANK0   BANK1   BANK3   BANK2
  7205 ;;      Params:         0       0       0       0       0
  7206 ;;      Locals:         1       0       0       0       0
  7207 ;;      Temps:          0       0       0       0       0
  7208 ;;      Totals:         1       0       0       0       0
  7209 ;;Total ram usage:        1 bytes
  7210 ;; Hardware stack levels used: 1
  7211 ;; Hardware stack levels required when called: 1
  7212 ;; This function calls:
  7213 ;;		Nothing
  7214 ;; This function is called by:
  7215 ;;		_Lcd_Cmd
  7216 ;;		_Lcd_Init
  7217 ;;		_Lcd_Write_Char
  7218 ;; This function uses a non-reentrant model
  7219 ;;
  7220                           
  7221     0800                     _Lcd_Port:	
  7222                           ;psect for function _Lcd_Port
  7223                           
  7224                           
  7225                           ;incstack = 0
  7226                           ; Regs used in _Lcd_Port: [wreg]
  7227                           ;Lcd_Port@a stored from wreg
  7228     0800  00F2               	movwf	Lcd_Port@a
  7229     0801                     l3569:
  7230                           
  7231                           ;./lcd.h: 4: void Lcd_Port(char a);./lcd.h: 5: {;./lcd.h: 6:  if(a & 1)
  7232     0801  1C72               	btfss	Lcd_Port@a,0
  7233     0802  2804               	goto	u5431
  7234     0803  2805               	goto	u5430
  7235     0804                     u5431:
  7236     0804  2809               	goto	l63
  7237     0805                     u5430:
  7238     0805                     l3571:
  7239                           
  7240                           ;./lcd.h: 7:   RD4 = 1;
  7241     0805  1283               	bcf	3,5	;RP0=0, select bank0
  7242     0806  1303               	bcf	3,6	;RP1=0, select bank0
  7243     0807  1608               	bsf	8,4	;volatile
  7244     0808  280C               	goto	l64
  7245     0809                     l63:	
  7246                           ;./lcd.h: 8:  else
  7247                           
  7248                           
  7249                           ;./lcd.h: 9:   RD4 = 0;
  7250     0809  1283               	bcf	3,5	;RP0=0, select bank0
  7251     080A  1303               	bcf	3,6	;RP1=0, select bank0
  7252     080B  1208               	bcf	8,4	;volatile
  7253     080C                     l64:
  7254                           
  7255                           ;./lcd.h: 11:  if(a & 2)
  7256     080C  1CF2               	btfss	Lcd_Port@a,1
  7257     080D  280F               	goto	u5441
  7258     080E  2810               	goto	u5440
  7259     080F                     u5441:
  7260     080F  2812               	goto	l65
  7261     0810                     u5440:
  7262     0810                     l3573:
  7263                           
  7264                           ;./lcd.h: 12:   RD5 = 1;
  7265     0810  1688               	bsf	8,5	;volatile
  7266     0811  2813               	goto	l66
  7267     0812                     l65:	
  7268                           ;./lcd.h: 13:  else
  7269                           
  7270                           
  7271                           ;./lcd.h: 14:   RD5 = 0;
  7272     0812  1288               	bcf	8,5	;volatile
  7273     0813                     l66:
  7274                           
  7275                           ;./lcd.h: 16:  if(a & 4)
  7276     0813  1D72               	btfss	Lcd_Port@a,2
  7277     0814  2816               	goto	u5451
  7278     0815  2817               	goto	u5450
  7279     0816                     u5451:
  7280     0816  2819               	goto	l67
  7281     0817                     u5450:
  7282     0817                     l3575:
  7283                           
  7284                           ;./lcd.h: 17:   RD6 = 1;
  7285     0817  1708               	bsf	8,6	;volatile
  7286     0818  281A               	goto	l68
  7287     0819                     l67:	
  7288                           ;./lcd.h: 18:  else
  7289                           
  7290                           
  7291                           ;./lcd.h: 19:   RD6 = 0;
  7292     0819  1308               	bcf	8,6	;volatile
  7293     081A                     l68:
  7294                           
  7295                           ;./lcd.h: 21:  if(a & 8)
  7296     081A  1DF2               	btfss	Lcd_Port@a,3
  7297     081B  281D               	goto	u5461
  7298     081C  281E               	goto	u5460
  7299     081D                     u5461:
  7300     081D  2820               	goto	l69
  7301     081E                     u5460:
  7302     081E                     l3577:
  7303                           
  7304                           ;./lcd.h: 22:   RD7 = 1;
  7305     081E  1788               	bsf	8,7	;volatile
  7306     081F  2821               	goto	l71
  7307     0820                     l69:	
  7308                           ;./lcd.h: 23:  else
  7309                           
  7310                           
  7311                           ;./lcd.h: 24:   RD7 = 0;
  7312     0820  1388               	bcf	8,7	;volatile
  7313     0821                     l71:
  7314     0821  0008               	return
  7315     0822                     __end_of_Lcd_Port:
  7316                           
  7317                           	psect	text19
  7318     0932                     __ptext19:	
  7319 ;; *************** function _TrataInt *****************
  7320 ;; Defined at:
  7321 ;;		line 452 in file "main.c"
  7322 ;; Parameters:    Size  Location     Type
  7323 ;;		None
  7324 ;; Auto vars:     Size  Location     Type
  7325 ;;		None
  7326 ;; Return value:  Size  Location     Type
  7327 ;;                  1    wreg      void 
  7328 ;; Registers used:
  7329 ;;		wreg, status,2, status,0
  7330 ;; Tracked objects:
  7331 ;;		On entry : 0/0
  7332 ;;		On exit  : 0/0
  7333 ;;		Unchanged: 0/0
  7334 ;; Data sizes:     COMMON   BANK0   BANK1   BANK3   BANK2
  7335 ;;      Params:         0       0       0       0       0
  7336 ;;      Locals:         0       0       0       0       0
  7337 ;;      Temps:          2       0       0       0       0
  7338 ;;      Totals:         2       0       0       0       0
  7339 ;;Total ram usage:        2 bytes
  7340 ;; Hardware stack levels used: 1
  7341 ;; This function calls:
  7342 ;;		Nothing
  7343 ;; This function is called by:
  7344 ;;		Interrupt level 1
  7345 ;; This function uses a non-reentrant model
  7346 ;;
  7347                           
  7348     0932                     _TrataInt:	
  7349                           ;psect for function _TrataInt
  7350                           
  7351     0932                     i1l3413:
  7352                           
  7353                           ;main.c: 454:             if(deuPau == 1){
  7354     0932  1283               	bcf	3,5	;RP0=0, select bank0
  7355     0933  1303               	bcf	3,6	;RP1=0, select bank0
  7356     0934  1C0C               	btfss	12,0	;volatile
  7357     0935  2937               	goto	u537_21
  7358     0936  2938               	goto	u537_20
  7359     0937                     u537_21:
  7360     0937  295C               	goto	i1l3427
  7361     0938                     u537_20:
  7362     0938                     i1l3415:
  7363                           
  7364                           ;main.c: 457:                 testeVent = 0;
  7365     0938  100C               	bcf	12,0	;volatile
  7366     0939                     i1l3417:
  7367                           
  7368                           ;main.c: 458:                 testeLuz = 0;
  7369     0939  30DC               	movlw	220
  7370     093A  008E               	movwf	14	;volatile
  7371                           
  7372                           ;main.c: 459:                 testeCort = 0;
  7373     093B  300B               	movlw	11
  7374     093C  008F               	movwf	15	;volatile
  7375     093D                     i1l3419:
  7376                           
  7377                           ;main.c: 462:         }
  7378     093D  0864               	movf	_meioTempo,w
  7379     093E  0465               	iorwf	_meioTempo+1,w
  7380     093F  1D03               	btfss	3,2
  7381     0940  2942               	goto	u538_21
  7382     0941  2943               	goto	u538_20
  7383     0942                     u538_21:
  7384     0942  294A               	goto	i1l3423
  7385     0943                     u538_20:
  7386     0943                     i1l3421:
  7387                           
  7388                           ;main.c: 464:     }
  7389     0943  3001               	movlw	1
  7390     0944  07E4               	addwf	_meioTempo,f
  7391     0945  1803               	skipnc
  7392     0946  0AE5               	incf	_meioTempo+1,f
  7393     0947  3000               	movlw	0
  7394     0948  07E5               	addwf	_meioTempo+1,f
  7395     0949  295C               	goto	i1l3427
  7396     094A                     i1l3423:
  7397     094A  0364               	decf	_meioTempo,w
  7398     094B  0465               	iorwf	_meioTempo+1,w
  7399     094C  1D03               	btfss	3,2
  7400     094D  294F               	goto	u539_21
  7401     094E  2950               	goto	u539_20
  7402     094F                     u539_21:
  7403     094F  295C               	goto	i1l3427
  7404     0950                     u539_20:
  7405     0950                     i1l3425:
  7406     0950  3001               	movlw	1
  7407     0951  07E2               	addwf	_sec,f
  7408     0952  1803               	skipnc
  7409     0953  0AE3               	incf	_sec+1,f
  7410     0954  3000               	movlw	0
  7411     0955  07E3               	addwf	_sec+1,f
  7412     0956  30FF               	movlw	255
  7413     0957  07E4               	addwf	_meioTempo,f
  7414     0958  1803               	skipnc
  7415     0959  0AE5               	incf	_meioTempo+1,f
  7416     095A  30FF               	movlw	255
  7417     095B  07E5               	addwf	_meioTempo+1,f
  7418     095C                     i1l3427:
  7419     095C  1C8B               	btfss	11,1	;volatile
  7420     095D  295F               	goto	u540_21
  7421     095E  2960               	goto	u540_20
  7422     095F                     u540_21:
  7423     095F  2983               	goto	i1l253
  7424     0960                     u540_20:
  7425     0960                     i1l3429:
  7426     0960  108B               	bcf	11,1	;volatile
  7427     0961                     i1l3431:
  7428     0961  0866               	movf	_deuPau,w
  7429     0962  0467               	iorwf	_deuPau+1,w
  7430     0963  1D03               	btfss	3,2
  7431     0964  2966               	goto	u541_21
  7432     0965  2967               	goto	u541_20
  7433     0966                     u541_21:
  7434     0966  2973               	goto	i1l3443
  7435     0967                     u541_20:
  7436     0967                     i1l3433:
  7437     0967  0187               	clrf	7	;volatile
  7438     0968                     i1l3435:
  7439     0968  3001               	movlw	1
  7440     0969  00E6               	movwf	_deuPau
  7441     096A  3000               	movlw	0
  7442     096B  00E7               	movwf	_deuPau+1
  7443     096C                     i1l3437:
  7444     096C  01EA               	clrf	_testeVent
  7445     096D  01EB               	clrf	_testeVent+1
  7446     096E                     i1l3439:
  7447     096E  01EC               	clrf	_testeLuz
  7448     096F  01ED               	clrf	_testeLuz+1
  7449     0970                     i1l3441:
  7450     0970  01E8               	clrf	_testeCort
  7451     0971  01E9               	clrf	_testeCort+1
  7452     0972  2983               	goto	i1l253
  7453     0973                     i1l3443:
  7454     0973  0366               	decf	_deuPau,w
  7455     0974  0467               	iorwf	_deuPau+1,w
  7456     0975  1D03               	btfss	3,2
  7457     0976  2978               	goto	u542_21
  7458     0977  2979               	goto	u542_20
  7459     0978                     u542_21:
  7460     0978  2983               	goto	i1l249
  7461     0979                     u542_20:
  7462     0979                     i1l3445:
  7463     0979  0187               	clrf	7	;volatile
  7464     097A  01E6               	clrf	_deuPau
  7465     097B  01E7               	clrf	_deuPau+1
  7466     097C  01EA               	clrf	_testeVent
  7467     097D  01EB               	clrf	_testeVent+1
  7468     097E  01EC               	clrf	_testeLuz
  7469     097F  01ED               	clrf	_testeLuz+1
  7470     0980  01E8               	clrf	_testeCort
  7471     0981  01E9               	clrf	_testeCort+1
  7472     0982  2983               	goto	i1l253
  7473     0983                     i1l249:
  7474     0983                     i1l253:
  7475     0983  0871               	movf	??_TrataInt+1,w
  7476     0984  008A               	movwf	10
  7477     0985  0E70               	swapf	??_TrataInt,w
  7478     0986  0083               	movwf	3
  7479     0987  0EFE               	swapf	btemp,f
  7480     0988  0E7E               	swapf	btemp,w
  7481     0989  0009               	retfie
  7482     098A                     __end_of_TrataInt:
  7483     007E                     btemp	set	126	;btemp
  7484     007E                     wtemp0	set	126
  7485                           
  7486                           	psect	intentry
  7487     0004                     __pintentry:	
  7488                           ;incstack = 0
  7489                           ; Regs used in _TrataInt: [wreg+status,2+status,0]
  7490                           
  7491     0004                     interrupt_function:
  7492     007E                     saved_w	set	btemp
  7493     0004  00FE               	movwf	btemp
  7494     0005  0E03               	swapf	3,w
  7495     0006  00F0               	movwf	??_TrataInt
  7496     0007  080A               	movf	10,w
  7497     0008  00F1               	movwf	??_TrataInt+1
  7498     0009  120A  158A  2932   	ljmp	_TrataInt
  7499                           
  7500                           	psect	config
  7501                           
  7502                           ;Config register CONFIG @ 0x2007
  7503                           ;	Oscillator Selection bits
  7504                           ;	FOSC = HS, HS oscillator
  7505                           ;	Watchdog Timer Enable bit
  7506                           ;	WDTE = OFF, WDT disabled
  7507                           ;	Power-up Timer Enable bit
  7508                           ;	PWRTE = ON, PWRT enabled
  7509                           ;	Brown-out Reset Enable bit
  7510                           ;	BOREN = ON, BOR enabled
  7511                           ;	Low-Voltage (Single-Supply) In-Circuit Serial Programming Enable bit
  7512                           ;	LVP = 0x1, unprogrammed default
  7513                           ;	Data EEPROM Memory Code Protection bit
  7514                           ;	CPD = 0x1, unprogrammed default
  7515                           ;	Flash Program Memory Write Enable bits
  7516                           ;	WRT = 0x3, unprogrammed default
  7517                           ;	In-Circuit Debugger Mode bit
  7518                           ;	DEBUG = 0x1, unprogrammed default
  7519                           ;	Flash Program Memory Code Protection bit
  7520                           ;	CP = 0x1, unprogrammed default
  7521     2007                     	org	8199
  7522     2007  3FF2               	dw	16370

Data Sizes:
    Strings     31
    Constant    10
    Data        0
    BSS         46
    Persistent  0
    Stack       0

Auto Spaces:
    Space          Size  Autos    Used
    COMMON           14     11      12
    BANK0            80     56      78
    BANK1            80      0      24
    BANK3            96      0       0
    BANK2            96      0       0

Pointer List with Targets:

    sprintf@f	PTR const unsigned char  size(1) Largest target is 22
		 -> STR_2(CODE[22]), 

    sprintf@sp	PTR unsigned char  size(1) Largest target is 20
		 -> buffer(BANK1[20]), 

    sprintf@ap	PTR void [1] size(1) Largest target is 2
		 -> ?_sprintf(BANK0[2]), 

    Lcd_Write_String@a	PTR unsigned char  size(2) Largest target is 20
		 -> buffer(BANK1[20]), STR_1(CODE[9]), 


Critical Paths under _main in COMMON

    _main->_Lcd_Write_String
    _sprintf->___lwmod
    ___lwmod->___lwdiv
    ___flmul->__Umul8_16
    _Lcd_Write_String->_Lcd_Write_Char
    _Lcd_Write_Char->_Lcd_Port
    _Lcd_Set_Cursor->_Lcd_Cmd
    _Lcd_Init->_Lcd_Cmd
    _Lcd_Clear->_Lcd_Cmd
    _Lcd_Cmd->_Lcd_Port

Critical Paths under _TrataInt in COMMON

    None.

Critical Paths under _main in BANK0

    _main->___fldiv
    _sprintf->___lwmod
    ___fldiv->___flmul

Critical Paths under _TrataInt in BANK0

    None.

Critical Paths under _main in BANK1

    None.

Critical Paths under _TrataInt in BANK1

    None.

Critical Paths under _main in BANK3

    None.

Critical Paths under _TrataInt in BANK3

    None.

Critical Paths under _main in BANK2

    None.

Critical Paths under _TrataInt in BANK2

    None.

Call Graph Tables:

 ---------------------------------------------------------------------------------
 (Depth) Function   	        Calls       Base Space   Used Autos Params    Refs
 ---------------------------------------------------------------------------------
 (0) _main                                                 4     4      0    9188
                                             52 BANK0      4     4      0
                          _Lcd_Clear
                           _Lcd_Init
                     _Lcd_Set_Cursor
                   _Lcd_Write_String
                            ___fldiv
                             ___flge
                            ___flmul
                           ___xxtofl
                            _sprintf
 ---------------------------------------------------------------------------------
 (1) _sprintf                                             27    20      7    2891
                                              5 BANK0     19    12      7
                             ___bmul
                            ___lwdiv
                            ___lwmod
                             ___wmul
                            _isdigit
 ---------------------------------------------------------------------------------
 (2) _isdigit                                              2     2      0      68
                                              2 COMMON     2     2      0
 ---------------------------------------------------------------------------------
 (2) ___wmul                                               6     2      4     244
                                              2 COMMON     6     2      4
 ---------------------------------------------------------------------------------
 (2) ___lwmod                                              6     2      4     412
                                             10 COMMON     1     1      0
                                              0 BANK0      5     1      4
                            ___lwdiv (ARG)
 ---------------------------------------------------------------------------------
 (2) ___lwdiv                                              8     4      4     314
                                              2 COMMON     8     4      4
 ---------------------------------------------------------------------------------
 (2) ___bmul                                               4     3      1     168
                                              2 COMMON     4     3      1
 ---------------------------------------------------------------------------------
 (1) ___xxtofl                                            14    10      4     398
                                              2 COMMON     8     4      4
                                              0 BANK0      6     6      0
 ---------------------------------------------------------------------------------
 (1) ___flmul                                             26    18      8    2417
                                              0 BANK0     26    18      8
                          __Umul8_16
 ---------------------------------------------------------------------------------
 (2) __Umul8_16                                            9     7      2     799
                                              2 COMMON     9     7      2
 ---------------------------------------------------------------------------------
 (1) ___flge                                              12     4      8     486
                                              2 COMMON     8     0      8
                                              0 BANK0      4     4      0
 ---------------------------------------------------------------------------------
 (1) ___fldiv                                             26    18      8    1273
                                             26 BANK0     26    18      8
                            ___flmul (ARG)
 ---------------------------------------------------------------------------------
 (1) _Lcd_Write_String                                     7     5      2     564
                                              7 COMMON     4     2      2
                                              0 BANK0      3     3      0
                     _Lcd_Write_Char
 ---------------------------------------------------------------------------------
 (2) _Lcd_Write_Char                                       4     4      0     254
                                              3 COMMON     4     4      0
                           _Lcd_Port
 ---------------------------------------------------------------------------------
 (1) _Lcd_Set_Cursor                                       6     5      1     725
                                              6 COMMON     2     1      1
                                              0 BANK0      4     4      0
                            _Lcd_Cmd
 ---------------------------------------------------------------------------------
 (1) _Lcd_Init                                             2     2      0     279
                                              6 COMMON     2     2      0
                            _Lcd_Cmd
                           _Lcd_Port
 ---------------------------------------------------------------------------------
 (1) _Lcd_Clear                                            0     0      0     155
                            _Lcd_Cmd
 ---------------------------------------------------------------------------------
 (2) _Lcd_Cmd                                              3     3      0     155
                                              3 COMMON     3     3      0
                           _Lcd_Port
 ---------------------------------------------------------------------------------
 (3) _Lcd_Port                                             1     1      0     124
                                              2 COMMON     1     1      0
 ---------------------------------------------------------------------------------
 Estimated maximum stack depth 3
 ---------------------------------------------------------------------------------
 (Depth) Function   	        Calls       Base Space   Used Autos Params    Refs
 ---------------------------------------------------------------------------------
 (4) _TrataInt                                             2     2      0       0
                                              0 COMMON     2     2      0
 ---------------------------------------------------------------------------------
 Estimated maximum stack depth 4
 ---------------------------------------------------------------------------------

 Call Graph Graphs:

 _main (ROOT)
   _Lcd_Clear
     _Lcd_Cmd
       _Lcd_Port
   _Lcd_Init
     _Lcd_Cmd
     _Lcd_Port
   _Lcd_Set_Cursor
     _Lcd_Cmd
   _Lcd_Write_String
     _Lcd_Write_Char
       _Lcd_Port
   ___fldiv
     ___flmul (ARG)
       __Umul8_16
   ___flge
   ___flmul
   ___xxtofl
   _sprintf
     ___bmul
     ___lwdiv
     ___lwmod
       ___lwdiv (ARG)
     ___wmul
     _isdigit

 _TrataInt (ROOT)

 Address spaces:
Name               Size   Autos  Total    Cost      Usage
BITCOMMON            E      0       1       0        7.1%
EEDATA             100      0       0       0        0.0%
NULL                 0      0       0       0        0.0%
CODE                 0      0       0       0        0.0%
COMMON               E      B       C       1       85.7%
BITSFR0              0      0       0       1        0.0%
SFR0                 0      0       0       1        0.0%
BITSFR1              0      0       0       2        0.0%
SFR1                 0      0       0       2        0.0%
STACK                0      0       0       2        0.0%
ABS                  0      0      72       3        0.0%
BITBANK0            50      0       0       4        0.0%
BITSFR3              0      0       0       4        0.0%
SFR3                 0      0       0       4        0.0%
BANK0               50     38      4E       5       97.5%
BITSFR2              0      0       0       5        0.0%
SFR2                 0      0       0       5        0.0%
BITBANK1            50      0       0       6        0.0%
BANK1               50      0      18       7       30.0%
BITBANK3            60      0       0       8        0.0%
BANK3               60      0       0       9        0.0%
BITBANK2            60      0       0      10        0.0%
BANK2               60      0       0      11        0.0%
DATA                 0      0      72      12        0.0%


Microchip Technology PIC Macro Assembler V2.40 build 20220703182018 
Symbol Table                                                                                   Tue Jul 26 12:25:10 2022

            ___fldiv@aexp 0053              ___fldiv@bexp 0052                         pc 0002  
            ___fldiv@sign 004B            ___bmul@product 0074                        l71 0821  
                      l63 0809                        l64 080C                        l65 0812  
                      l66 0813                        l74 17A7                        l67 0819  
                      l83 0931                        l68 081A                        l69 0820  
                      l77 1766                        l86 07D4                        l95 08A1  
                      l89 17FF                        fsr 0004       ___wmul@multiplicand 0074  
     __Umul8_16@word_mpld 0078                       l416 178D                       l177 0581  
                     l194 0437                       l196 03BF                       l390 17B4  
                     l800 07FB                       l392 17CC                       l386 0777  
                     l564 09A8                       l741 0CBA                       l662 08E5  
                     l567 0A14                       l823 0A52                       l568 0A2D  
                     l672 085D                       l761 0CA2                       l825 0AE7  
                     l763 0CB0                       l755 0C30                       l739 0B3E  
                     l843 1778                       l836 0AB1                       l837 0ABD  
                     l829 0A95                       l791 0FF3                       l785 0F6F  
                     l779 0FFF                       l798 07E9                       _RB5 0035  
                     _RD2 0042                       _RB6 0036                       _RD3 0043  
                     _RD4 0044                       _RD5 0045                       _RD6 0046  
                     _RD7 0047                       _min 0060                       _sec 0062  
                     fsr0 0004                       indf 0000              ___flmul@aexp 0032  
            ___flmul@bexp 0033              ___flmul@sign 002D              ___flmul@temp 0038  
            ___flmul@prod 0034                      l2301 17BB                      l2311 177B  
                    l2303 17C2                      l2313 177F                      l2305 17C8  
                    l4001 0284                      l2315 1783                      l2331 08B4  
                    l2323 08A2                      l4011 0297                      l4003 028C  
                    l2317 1785                      l2309 177A                      l2341 08D4  
                    l2333 08B8                      l2325 08A4                      l4101 0391  
                    l4021 02AE                      l4013 029E                      l4005 028D  
                    l2319 178C                      l2343 08DB                      l2335 08BC  
                    l2327 08AA                      l4111 03B5                      l4103 0397  
                    l4031 02C2                      l4023 02B0                      l4007 028F  
                    l4015 02A0                      l2601 0B21                      l2337 08CD  
                    l2329 08AD                      l2345 08E1                      l4201 0499  
                    l4121 03CA                      l4105 03A4                      l4113 03B7  
                    l4041 02D3                      l4033 02C3                      l4025 02B6  
                    l4017 02A6                      l4009 0295                      l2603 0B26  
                    l2611 0B36                      l2371 07D6                      l2339 08D3  
                    l2291 1777                      l2283 1768                      l4211 04AF  
                    l4203 04A0                      l4123 03CE                      l4115 03BB  
                    l4107 03AC                      l4051 0300                      l4043 02ED  
                    l4035 02C5                      l4019 02AD                      l4027 02B8  
                    l2701 0C99                      l2613 0B46                      l2621 0B5F  
                    l2605 0B2B                      l2381 07F7                      l2373 07D8  
                    l2285 1769                      l4221 04C5                      l4213 04B1  
                    l4205 04A2                      l4133 03E4                      l4141 03F7  
                    l4125 03D4                      l4117 03C3                      l4109 03AE  
                    l4061 031F                      l4053 0302                      l4045 02F0  
                    l4037 02CB                      l4029 02BC                      l2703 0CA1  
                    l2631 0B87                      l2623 0B64                      l2615 0B52  
                    l2607 0B33                      l2375 07DF                      l2295 17A8  
                    l2287 176F                      l4223 04CB                      l4215 04B7  
                    l4207 04A6                      l4231 04DB                      l4143 03FD  
                    l4135 03E7                      l4127 03D5                      l4119 03C9  
                    l4071 0345                      l4063 0326                      l4055 0308  
                    l4047 02F4                      l4039 02CD                      l3601 17EF  
                    l2705 0CA6                      l2641 0BB0                      l2633 0B8F  
                    l2617 0B56                      l2609 0B34                      l2561 09C8  
                    l2553 098A                      l2377 07E3                      l2801 0F32  
                    l2721 0CC8                      l2297 17AA                      l2289 1775  
                    l4241 04F1                      l4233 04DF                      l4225 04CD  
                    l4217 04BD                      l4209 04AE                      l4161 0424  
                    l4153 040A                      l4129 03DD                      l4081 0357  
                    l4073 0347                      l4057 0315                      l4065 0328  
                    l4049 02FA                      l3603 17F5                      l2707 0CAA  
                    l2651 0BD1                      l2643 0BB4                      l2635 0B97  
                    l2627 0B6D                      l2563 09EC                      l2555 09A0  
                    l2379 07F2                      l2803 0F3B                      l2811 0F4F  
                    l2731 0CDD                      l2723 0CC9                      l2715 0CBB  
                    l3611 082A                      l2299 17AE                      l4251 0507  
                    l4243 04F7                      l4235 04E8                      l4227 04D3  
                    l4219 04BF                      l4171 0443                      l4163 0427  
                    l4147 0404                      l4155 0417                      l4139 03EA  
                    l4091 0378                      l4083 035B                      l4075 034E  
                    l4067 0337                      l4059 031D                      l3605 17F8  
                    l2709 0CAC                      l2661 0BF3                      l2653 0BDF  
                    l2645 0BB5                      l2637 0B99                      l2629 0B7F  
                    l2581 0AF6                      l2573 0AE8                      l2565 09F0  
                    l2557 09BC                      l2813 0F53                      l2805 0F3F  
                    l2741 0CF3                      l2733 0CE5                      l2725 0CCE  
                    l2717 0CC0                      l3621 0846                      l3613 082D  
                    l3701 060F                      l4261 0521                      l4253 050D  
                    l4245 04F9                      l4237 04E9                      l4229 04D9  
                    l4181 0454                      l4173 0444                      l4157 041D  
                    l4149 0407                      l4093 037F                      l4085 0361  
                    l4069 033F                      l4077 0350                      l3631 175A  
                    l3607 17FC                      l2663 0BFC                      l2671 0C10  
                    l2639 0B9E                      l2647 0BBE                      l2655 0BE3  
                    l2583 0AFB                      l2591 0B0B                      l2575 0AED  
                    l2567 0A2A                      l2559 09C4                      l2831 0FA4  
                    l2823 0F74                      l2815 0F54                      l2807 0F40  
                    l2751 0D0F                      l2743 0CF8                      l2735 0CEA  
                    l2727 0CD3                      l2719 0CC4                      l3623 084C  
                    l3615 0834                      l3711 0630                      l3703 061A  
                    l4271 053F                      l4263 0522                      l4255 0513  
                    l4247 04FF                      l4239 04EB                      l4191 0478  
                    l4183 045A                      l4175 0446                      l4167 042A  
                    l4087 036E                      l4095 0381                      l4079 0354  
                    l3641 0904                      l3633 08E9                      l2673 0C14  
                    l2665 0C00                      l2657 0BE9                      l2649 0BD0  
                    l2593 0B13                      l2585 0B00                      l2577 0AF1  
                    l2569 0A2C                      l2841 0FDB                      l2825 0F79  
                    l2833 0FAA                      l2817 0F58                      l2809 0F49  
                    l2761 0D30                      l2753 0D14                      l2745 0CFD  
                    l2737 0CEE                      l2729 0CDB                      l3625 0853  
                    l3617 0838                      l3609 0822                      l3721 0663  
                    l3713 064F                      l3705 061E                      l4281 0558  
                    l4273 0541                      l4265 0524                      l4249 0505  
                    l4257 0515                      l4185 0467                      l4193 047A  
                    l4177 044C                      l4169 043B                      l4433 03EF  
                    l4097 0389                      l4089 0376                      l3571 0805  
                    l3651 0929                      l3635 08EE                      l3643 090D  
                    l2691 0C65                      l2683 0C35                      l2675 0C15  
                    l2667 0C01                      l2659 0BF1                      l2595 0B18  
                    l2587 0B08                      l2579 0AF5                      l2851 0FF7  
                    l2843 0FDD                      l2835 0FB7                      l2827 0F87  
                    l2819 0F6C                      l2771 0DBA                      l2763 0D3D  
                    l2755 0D19                      l2747 0D05                      l2739 0CF2  
                    l3619 083C                      l3627 0859                      l3723 0668  
                    l3715 0657                      l3707 062F                      l4291 0577  
                    l4283 055A                      l4275 0548                      l4267 052A  
                    l4259 0519                      l4195 0489                      l4187 046F  
                    l4179 0452                      l4435 040F                      l4099 038F  
                    l3811 0032                      l3803 0025                      l3573 0810  
                    l3581 1792                      l3661 079B                      l3653 0778  
                    l3645 0913                      l3637 08FB                      l2685 0C3A  
                    l2693 0C6B                      l2677 0C19                      l2669 0C0A  
                    l2597 0B1C                      l2589 0B09                      l2845 0FE9  
                    l2837 0FC2                      l2829 0F8B                      l2781 0E18  
                    l2773 0DD6                      l2765 0D58                      l2749 0D07  
                    l2861 0A4A                      l3741 06AF                      l3733 0679  
                    l3725 066D                      l3717 065B                      l4293 057E  
                    l4285 0560                      l4269 0537                      l4277 054A  
                    l4197 0491                      l4189 0471                      l4437 042F  
                    l3901 0100                      l3821 003D                      l3813 0037  
                    l3805 0029                      l3575 0817                      l3583 1798  
                    l3655 077E                      l3647 0920                      l3639 08FE  
                    l3591 17D4                      l3663 085E                      l2695 0C78  
                    l2687 0C48                      l2679 0C2D                      l2599 0B20  
                    l2847 0FED                      l2839 0FD1                      l2791 0EA2  
                    l2783 0E35                      l2775 0DDF                      l2767 0D74  
                    l2759 0D22                      l2871 0A73                      l2863 0A5A  
                    l2855 0A31                      l3751 06DA                      l3743 06B4  
                    l3727 0673                      l3719 065F                      l4439 0644  
                    l3671 0588                      l4287 056D                      l4279 0552  
                    l4199 0497                      l3911 0129                      l3903 0106  
                    l3831 0048                      l3823 003E                      l3815 0038  
                    l3807 002C                      l3577 081E                      l3569 0801  
                    l3585 179B                      l3657 0787                      l3649 0923  
                    l3593 17D7                      l3665 0861                      l2697 0C86  
                    l2689 0C4C                      l2849 0FEE                      l2793 0ECD  
                    l2785 0E4C                      l2777 0DED                      l2769 0D9E  
                    l2881 0AA7                      l2873 0A7A                      l2857 0A36  
                    l3761 06EB                      l3745 06C8                      l3737 0695  
                    l3729 0677                      l3681 059E                      l3673 058B  
                    l4289 0575                      l3921 014D                      l3913 0131  
                    l3905 0108                      l3841 0051                      l3833 0049  
                    l3825 0043                      l3817 0039                      l3809 002F  
                    l3587 17A4                      l3579 178F                      l3659 0795  
                    l3595 17E5                      l3667 087D                      l2699 0C95  
                    l2795 0EF3                      l2787 0E69                      l2779 0E0A  
                    l2891 0ADA                      l2883 0AAB                      l2875 0A7E  
                    l2867 0A63                      l2859 0A3A                      l3771 070A  
                    l3763 06F7                      l3747 06CC                      l3739 069F  
                    l3691 05DE                      l3683 05AE                      l3675 0591  
                    l3931 01C5                      l3923 016C                      l3915 013A  
                    l3907 010F                      l3851 0060                      l3843 0052  
                    l3835 004A                      l3827 0044                      l3819 003A  
                    l3597 17E8                      l3589 17CE                      l3669 0883  
                    l2797 0F1B                      l2789 0E94                      l2893 0ADE  
                    l2885 0AB5                      l2877 0A8C                      l2869 0A66  
                    l3781 0754                      l3773 0716                      l3765 06FB  
                    l3749 06D4                      l3685 05B2                      l3693 05EE  
                    l3677 0596                      l3933 01C9                      l3941 01D6  
                    l3925 01B0                      l3917 0142                      l3909 0115  
                    l3861 0083                      l3853 0068                      l3845 0055  
                    l3837 004D                      l3829 0047                      l3599 17EC  
                    l2799 0F24                      l2895 0ADF                      l2887 0ABF  
                    l2879 0A9C                      l3775 071C                      l3767 0701  
                    l3759 06E0                      l3695 05FC                      l3687 05C7  
                    l3679 059B                      l3951 01F1                      l3943 01DD  
                    l3935 01CA                      l3927 01B9                      l3919 0146  
                    l3871 00AB                      l3863 0087                      l3855 0071  
                    l3847 0056                      l3839 004E                      l2889 0AD5  
                    l3777 0721                      l3785 075A                      l3769 0706  
                    l3697 0600                      l3689 05DA                      l3961 0204  
                    l3953 01F5                      l3945 01E4                      l3937 01CE  
                    l3929 01BF                      l3881 00CF                      l3873 00B7  
                    l3865 008F                      l3857 0077                      l3849 005B  
                    l3779 0726                      l3699 0602                      l3787 0763  
                    l3971 021B                      l3955 01F9                      l3963 0207  
                    l3947 01EA                      l3939 01D4                      l3891 00E8  
                    l3883 00D0                      l3875 00B8                      l3867 009F  
                    l3859 007D                      l3789 0773                      l3981 0230  
                    l3973 0221                      l3965 020D                      l3957 01FA  
                    l3949 01F0                      l3885 00D7                      l3893 00EA  
                    l3877 00BF                      l3869 00A7                      l3991 0258  
                    l3975 0227                      l3983 0232                      l3959 01FE  
                    l3967 020F                      l3895 00F1                      l3887 00DB  
                    l3879 00C3                      l3993 025E                      l3985 024B  
                    l3977 0229                      l3969 0215                      l3897 00F7  
                    l3889 00E7                      l3995 0260                      l3987 0253  
                    l3979 022A                      l3899 00F9                      l3997 0267  
                    l3989 0254                      l3999 0269                      STR_1 1030  
                    STR_2 101A                      u3000 07F7                      u3001 07F6  
                    u4000 0FED                      u4001 0FEC                      u4010 0A36  
                    u4011 0A35                      u3300 09C8                      u4100 0AB1  
                    u4020 0A3A                      u3301 09C7                      u4101 0AB0  
                    u4021 0A39                      u4110 0AB5                      u4030 0A5A  
                    u3311 09D7                      u4111 0AB4                      u4031 0A59  
                    u3400 0B2B                      u3320 09F0                      u3312 09D8  
                    u4120 0ACA                      u3401 0B2A                      u3321 09EF  
                    u3313 09DD                      u3410 0B46                      u3314 09DE  
                    u4130 0ADA                      u4050 0A79                      u3411 0B45  
                    u3331 09FF                      u3315 09E3                      u4131 0AD9  
                    u4051 0A78                      u3500 0BF1                      u3420 0B64  
                    u3340 0A2A                      u3332 0A00                      u3316 09E4  
                    u4140 0ADE                      u3501 0BF0                      u3421 0B63  
                    u3341 0A29                      u3333 0A05                      u4141 0ADD  
                    u4125 0AC5                      u4045 0A6B                      u3430 0B9E  
                    u3350 0AF5                      u3334 0A06                      u4070 0A9B  
                    u3431 0B9D                      u3351 0AF4                      u3335 0A0B  
                    u4071 0A9A                      u3600 0C5B                      u3520 0C00  
                    u3360 0AFB                      u3336 0A0C                      u3280 09A0  
                    u6000 01DD                      u3521 0BFF                      u3361 0AFA  
                    u3345 0A26                      u3281 099F                      u4065 0A8D  
                    u6001 01DC                      u3610 0C78                      u3370 0B00  
                    u3290 09BC                      u4090 0AAB                      u6010 01E4  
                    u3611 0C77                      u3515 0BF5                      u3371 0AFF  
                    u3291 09BB                      u4091 0AAA                      u6011 01E3  
                    u3620 0C95                      u3540 0C14                      u3460 0BB4  
                    u3380 0B20                      u3700 0D14                      u2820 17C8  
                    u6100 0227                      u6020 01EA                      u3621 0C94  
                    u3605 0C56                      u3541 0C13                      u3461 0BB3  
                    u3445 0BA0                      u3381 0B1F                      u3701 0D13  
                    u4085 0AA0                      u2821 17C7                      u2805 17B5  
                    u6101 0226                      u6021 01E9                      u3630 0CAA  
                    u3550 0C19                      u3390 0B26                      u3710 0D19  
                    u2830 177F                      u2910 08E1                      u6110 0230  
                    u6030 01F0                      u3631 0CA9                      u3615 0C74  
                    u3551 0C18                      u3535 0C03                      u3455 0BA9  
                    u3391 0B25                      u3711 0D18                      u2831 177E  
                    u2911 08E0                      u2815 17BC                      u6111 022F  
                    u6031 01EF                      u3560 0C2D                      u3480 0BD0  
                    u3640 0CC8                      u2840 178C                      u7000 056D  
                    u6200 02A6                      u6120 024B                      u6040 01F9  
                    u3625 0C91                      u3561 0C2C                      u3481 0BCF  
                    u3801 0E5B                      u3721 0D66                      u3641 0CC7  
                    u2841 178B                      u2905 08D5                      u7001 056C  
                    u6201 02A5                      u6121 024A                      u6041 01F8  
                    u3570 0C34                      u3490 0BE9                      u3802 0E62  
                    u3722 0D6D                      u3650 0CCE                      u2850 08AA  
                    u2770 176F                      u7010 0575                      u6210 02AD  
                    u6130 0253                      u6050 0204                      u3571 0C33  
                    u3491 0BE8                      u3475 0BB7                      u3811 0E86  
                    u3803 0E69                      u3731 0D82                      u3723 0D74  
                    u3651 0CCD                      u2851 08A9                      u2771 176E  
                    u7011 0574                      u6211 02AC                      u6131 0252  
                    u6051 0203                      u3580 0C3A                      u3812 0E8D  
                    u3732 0D89                      u3660 0CD3                      u5500 083C  
                    u2780 1775                      u7020 057E                      u6220 02B6  
                    u6140 025E                      u6060 020D                      u3581 0C39  
                    u3485 0BCC                      u3821 0EB1                      u3813 0E94  
                    u3741 0DAC                      u3733 0D90                      u3661 0CD2  
                    u5501 083B                      u2781 1774                      u7021 057D  
                    u7005 0569                      u6221 02B5                      u6141 025D  
                    u6061 020C                      u5430 0805                      u3590 0C4C  
                    u3910 0F53                      u3830 0ED9                      u3822 0EB8  
                    u3742 0DB3                      u3670 0CF2                      u2870 08BC  
                    u5510 0846                      u2790 17AE                      u6310 02ED  
                    u6230 02BC                      u6150 0267                      u6070 0215  
                    _INTF 0059                      u5431 0804                      u3591 0C4B  
                    u3911 0F52                      u3823 0EBF                      u3751 0DC8  
                    u3743 0DBA                      u3671 0CF1                      u2871 08BB  
                    u5511 0845                      u2791 17AD                      u6311 02EC  
                    u6231 02BB                      u6151 0266                      u6071 0214  
                    u5440 0810                      u5600 08A1                      u3920 0F58  
                    u3752 0DCF                      u3680 0CF8                      u6400 0345  
                    u6320 02FA                      u6240 02C2                      u6160 0284  
                    u6080 021B                      u5441 080F                      u5601 08A0  
                    u3921 0F57                      u3905 0F42                      u3841 0EE5  
                    u3753 0DD6                      u3681 0CF7                      u2865 08AE  
                    u6401 0344                      u6321 02F9                      u6305 02E9  
                    u6241 02C1                      u6161 0283                      u6081 021A  
                    u5450 0817                      u3930 0F6C                      u3850 0F01  
                    u3842 0EEC                      u3690 0CFD                      u2890 08CD  
                    u5530 0859                      u5610 0591                      u6410 034E  
                    u6330 0300                      u6250 02CB                      u6170 028C  
                    u6090 0221                      u5451 0816                      u7107 179F  
                    u3931 0F6B                      u3843 0EF3                      u3835 0ED4  
                    u3771 0DFC                      u3691 0CFC                      u2891 08CC  
                    u5531 0858                      u5515 0842                      u5611 0590  
                    u6411 034D                      u6331 02FF                      u6251 02CA  
                    u6171 028B                      u6091 0220                      u5460 081E  
                    u5540 08EE                      u2980 07E3                      u3940 0F73  
                    u3772 0E03                      u5700 069F                      u5620 05AE  
                    u6500 03A4                      u6420 0354                      u6340 0308  
                    u6260 02D3                      u6180 0295                      u5461 081D  
                    u5541 08ED                      u2981 07E2                      u3941 0F72  
                    u3861 0F0D                      u3781 0E27                      u3773 0E0A  
                    u3765 0DD8                      u2885 08BD                      u5525 084D  
                    u5701 069E                      u5621 05AD                      u6501 03A3  
                    u6421 0353                      u6341 0307                      u6261 02D2  
                    u6181 0294                      u7037 0098                      u3950 0F79  
                    u3862 0F14                      u3782 0E2E                      u5710 06AF  
                    u5630 05EE                      u6510 03AC                      u6430 0361  
                    u6350 0315                      u6190 029E                      u3951 0F78  
                    u3863 0F1B                      u3855 0EFC                      u3783 0E35  
                    u2895 08C9                      u5711 06AE                      u5631 05ED  
                    u6511 03AB                      u6431 0360                      u6351 0314  
                    u6191 029D                      u7047 014A                      u5560 0913  
                    u3960 0F8B                      u5480 082A                      u5800 0773  
                    u5720 06C8                      u5640 05FC                      u6600 0403  
                    u6520 03B5                      u6440 036E                      u6360 031D  
                    u5561 0912                      u7057 17EA                      u3961 0F8A  
                    u5481 0829                      u5801 0772                      u5721 06C7  
                    u5641 05FB                      u6601 0402                      u6521 03B4  
                    u6505 03A0                      u6441 036D                      u6361 031C  
                    u3970 0F9A                      u3890 0F3F                      u5730 06D4  
                    u5650 062E                      u6610 041D                      u6530 03BB  
                    u6450 0376                      u6370 0326                      u5555 08F4  
                    u7067 17FA                      u5475 17DA                      u2995 07EA  
                    u3891 0F3E                      u3875 0F1D                      u3795 0E37  
                    u5731 06D3                      u5715 06AB                      u5651 062D  
                    u6611 041C                      u6531 03BA                      u6451 0375  
                    u6371 0325                      u6355 0311                      u6275 02D7  
                    u5580 086B                      u3980 0FB7                      u5740 06DA  
                    u5660 065F                      u6700 0478                      u6620 0423  
                    u6540 03BF                      u6460 037F                      u6380 0337  
                    u5900 00DB                      u7077 0782                      u3981 0FB6  
                    u3885 0F34                      u5741 06D9                      u5725 06C4  
                    u5661 065E                      u6701 0477                      u6621 0422  
                    u6541 03BE                      u6461 037E                      u6445 036A  
                    u6381 0336                      u6285 02DD                      u5901 00DA  
                    u5590 088F                      u3990 0FD1                      u5750 06EB  
                    u5670 066D                      u6710 0489                      u6630 043B  
                    u6550 03C3                      u6470 0389                      u6390 033F  
                    u5910 00F1                      u7087 0791                      u5575 0919  
                    u3991 0FD0                      u3975 0F95                      u5495 082E  
                    u5751 06EA                      u5671 066C                      u6711 0488  
                    u6631 043A                      u6551 03C2                      u6471 0388  
                    u6391 033E                      u6295 02E3                      u5911 00F0  
                    u5815 0077                      u5760 0701                      u5680 0673  
                    u6800 04CB                      u6720 0491                      u6640 0443  
                    u6560 03CE                      u6480 038F                      u5920 0100  
                    u5840 0087                      u7097 079F                      u3985 0FB3  
                    u5761 0700                      u5681 0672                      u6801 04CA  
                    u6721 0490                      u6641 0442                      u6561 03CD  
                    u6481 038E                      u6385 0333                      u5921 00FF  
                    u5841 0086                      u5825 007D                      u5770 0716  
                    u5690 0694                      u6810 04D3                      u6730 0497  
                    u6650 044C                      u6570 03DD                      u6490 0397  
                    u5930 010F                      u5850 00A7                      u3995 0FCD  
                    u5771 0715                      u5755 06E7                      u5691 0693  
                    u6811 04D2                      u6731 0496                      u6715 0485  
                    u6651 044B                      u6571 03DC                      u6491 0396  
                    u5931 010E                      u5851 00A6                      u5835 0083  
                    u5780 071C                      u6900 0513                      u6820 04D9  
                    u6740 04A0                      u6660 0452                      u6580 03E3  
                    u5940 0142                      u5860 00AB                      u5781 071B  
                    u6901 0512                      u6821 04D8                      u6741 049F  
                    u6661 0451                      u6581 03E2                      u5941 0141  
                    u5861 00AA                      u5790 0763                      u6910 0519  
                    u6830 04DF                      u6750 04A6                      u6670 045A  
                    u6590 03FD                      u5950 01B9                      u5870 00BF  
                    u5791 0762                      u5695 0690                      u6911 0518  
                    u6831 04DE                      u6751 04A5                      u6671 0459  
                    u6591 03FC                      u5951 01B8                      u5871 00BE  
                    u6920 0521                      u6840 04E8                      u6760 04AE  
                    u6680 0467                      u5960 01BF                      u5880 00C3  
                    u6921 0520                      u6841 04E7                      u6761 04AD  
                    u6681 0466                      u5961 01BE                      u5881 00C2  
                    u6930 052A                      u6850 04F1                      u6770 04B7  
                    u6690 046F                      u5970 01C5                      u5890 00D7  
                    u6931 0529                      u6851 04F0                      u6771 04B6  
                    u6691 046E                      u5971 01C4                      u5891 00D6  
                    u6940 0537                      u6860 04F7                      u6780 04BD  
                    u5980 01C9                      u6941 0536                      u6861 04F6  
                    u6781 04BC                      u6685 0463                      u5981 01C8  
                    u6950 053F                      u6870 04FF                      u6790 04C5  
                    u5990 01D4                      u6951 053E                      u6871 04FE  
                    u6791 04C4                      u5991 01D3                      u6960 0548  
                    u6880 0505                      u6961 0547                      u6945 0533  
                    u6881 0504                      u6970 0552                      u6890 050D  
                    u6971 0551                      u6891 050C                      u6980 0558  
                    u6981 0557                      u6990 0560                      u6991 055F  
       ?_Lcd_Write_String 0077                      _main 0025                      _hora 005E  
                    btemp 007E                      start 000C        ??_Lcd_Write_String 0020  
         ___fldiv@new_exp 004C           __end_of_Lcd_Cmd 17A8         ___bmul@multiplier 0075  
                   ?_main 0070           __end_of___fldiv 0CBB           __end_of___flmul 1000  
         __end_of___lwdiv 08E6                     i1l253 0983                     i1l249 0983  
         __end_of___lwmod 085E                     _TMR1H 000F                     _TMR1L 000E  
                   _PORTB 0006                     _PORTC 0007                     _TRISB 0086  
                   _TRISC 0087                     _TRISD 0088           __end_of_dpowers 101A  
         __end_of_isdigit 1779                     _valor 0058            __pbitbssCOMMON 03D8  
                   pclath 000A                     status 0003                     wtemp0 007E  
         __end_of_sprintf 0778          __end_of_Lcd_Init 07D5          __end_of_Lcd_Port 0822  
         __initialization 000F              __end_of_main 0585                    ??_main 0054  
        __end_of_TrataInt 098A                    _ADRESH 001E                    _ADRESL 009E  
                  i1l3421 0943                    i1l3413 0932                    i1l3431 0961  
                  i1l3423 094A                    i1l3415 0938                    i1l3441 0970  
                  i1l3433 0967                    i1l3425 0950                    i1l3417 0939  
                  i1l3435 0968                    i1l3443 0973                    i1l3419 093D  
                  i1l3427 095C                    i1l3445 0979                    i1l3437 096C  
                  i1l3429 0960                    i1l3439 096E                    u540_20 0960  
                  u540_21 095F                    u541_20 0967                    u541_21 0966  
                  u542_20 0979                    u542_21 0978                    u537_20 0938  
                  u537_21 0937                    u538_20 0943                    u538_21 0942  
                  u539_20 0950                    u539_21 094F                 ??_Lcd_Cmd 0073  
                  _TMR1IF 0060          __end_of___xxtofl 0AE8                    ___flge 098A  
                  ___bmul 1779                    ___wmul 17A8                 ??___fldiv 0042  
               ??___flmul 0028                    _deuPau 0066                 ??___lwdiv 0076  
               ??___lwmod 007A                    _btnLuz 03DF                    _buffer 00A4  
               ??_isdigit 0072                    saved_w 007E                 ??_sprintf 002C  
         Lcd_Set_Cursor@a 0020           Lcd_Set_Cursor@b 0076           Lcd_Set_Cursor@y 0022  
         Lcd_Set_Cursor@z 0021                ___flge@ff1 0072                ___flge@ff2 0076  
            ___xxtofl@arg 0022              ___xxtofl@exp 0021              ___xxtofl@val 0072  
 __end_of__initialization 0021         __end_of_Lcd_Clear 1767       ___bmul@multiplicand 0072  
          __pcstackCOMMON 0070            _Lcd_Set_Cursor 08E6                 ?_Lcd_Init 0070  
               ?_Lcd_Port 0070              sprintf@width 0034                __pbssBANK0 0058  
              __pbssBANK1 00A0         __end_of__Umul8_16 07FC                __pmaintext 0025  
                 ?___flge 0072                   ?___bmul 0072                   ?___wmul 0072  
               ?_TrataInt 0070                __pintentry 0004    __end_of_Lcd_Set_Cursor 0932  
               ?___xxtofl 0072                ??_Lcd_Init 0076                ??_Lcd_Port 0072  
              __stringtab 1000            _Lcd_Write_Char 17CD                   _Lcd_Cmd 178E  
                 ___fldiv 0AE8                ??_TrataInt 0070                   ___flmul 0CBB  
                 ___lwdiv 08A2                   ___lwmod 0822           ?_Lcd_Set_Cursor 0076  
                 _btnAbre 03DE                   __ptext1 0585                   __ptext2 1767  
                 __ptext3 17A8                   __ptext4 0822                   __ptext5 08A2  
                 __ptext6 1779                   __ptext7 0A2E                   __ptext8 0CBB  
                 __ptext9 07D5                   _btnVent 03DC                 _T1CONbits 0010  
                 _dpowers 1010                   _isdigit 1767                ??___xxtofl 0076  
                 _trocado 03D8                   _sprintf 0585                   clrloop0 1753  
  __end_of_Lcd_Write_Char 1800      end_of_initialization 0021                 Lcd_Port@a 0072  
              _sensorAbre 03DB                 _PORTBbits 0006                 _PORTCbits 0007  
           ___xxtofl@sign 0020               ___fldiv@grs 004E               ___fldiv@rem 0047  
         ?_Lcd_Write_Char 0070         Lcd_Write_String@a 0077         Lcd_Write_String@i 0079  
             ___flmul@grs 002E                 _Lcd_Clear 175A            __end_of___flge 0A2E  
          __end_of___bmul 178E            __end_of___wmul 17CD          _Lcd_Write_String 085E  
     start_initialization 000F                ?_Lcd_Clear 0070                  ??___flge 0020  
                ??___bmul 0073                  ??___wmul 0076                 __Umul8_16 07D5  
         Lcd_Write_Char@a 0076           Lcd_Write_Char@y 0075                 ___fldiv@a 003A  
               ___fldiv@b 003E                 ___flmul@a 0024                 ___flmul@b 0020  
               ___latbits 0002             __pcstackBANK0 0020                  ?_Lcd_Cmd 0070  
             sprintf@flag 0030               sprintf@prec 0036          ___lwdiv@dividend 0074  
        ??_Lcd_Set_Cursor 0077                  ?___fldiv 003A                  ?___flmul 0020  
              ?__Umul8_16 0072                  ?___lwdiv 0072                  ?___lwmod 0020  
               __pstrings 1000                  ?_isdigit 0070                 _meioTempo 0064  
        ___lwdiv@quotient 0077                  ?_sprintf 0025         interrupt_function 0004  
          ___wmul@product 0076                 clear_ram0 1752                  _PIE1bits 008C  
                Lcd_Cmd@a 0075                  _PIR1bits 000C               ??_Lcd_Clear 0076  
               _testeCort 0068                 _testeVent 006A                _ADCON0bits 001F  
             __stringbase 100F                _ADCON1bits 009F         ___wmul@multiplier 0072  
               _trocaHora 005C          ??_Lcd_Write_Char 0073                  _Lcd_Init 0778  
                _Lcd_Port 0800  __end_of_Lcd_Write_String 08A2                  _TrataInt 0932  
             ??__Umul8_16 0074        __end_of__stringtab 1010               _isdigit$858 0072  
              sprintf@val 0031                  ___xxtofl 0A2E           ___lwdiv@divisor 0072  
                _btnFecha 03DD           ___lwdiv@counter 0079                  __ptext10 098A  
                __ptext11 0AE8                  __ptext12 085E                  __ptext13 17CD  
                __ptext14 08E6                  __ptext15 0778                  __ptext16 175A  
                __ptext17 178E                  __ptext18 0800                  __ptext19 0932  
                _btnTroca 03D9                  _testeLuz 006C                _INTCONbits 000B  
                isdigit@c 0073        Lcd_Write_Char@temp 0074                  intlevel1 0000  
               sprintf@ap 002F                 sprintf@sp 0033          ___lwmod@dividend 0022  
               stringcode 100A        Lcd_Set_Cursor@temp 0023               _sensorFecha 03DA  
  __Umul8_16@multiplicand 0072                _OPTION_REG 0081               _temperatura 00A0  
                sprintf@c 0037                  sprintf@f 0025           ___lwmod@divisor 0020  
         ___lwmod@counter 0024                  stringdir 100A                  stringtab 1000  
    __Umul8_16@multiplier 007A         __Umul8_16@product 0076  
